
fns:     file format elf64-x86-64


Disassembly of section .init:

0000000000001000 <_init>:
    1000:	48 83 ec 08          	sub    $0x8,%rsp
    1004:	48 8b 05 dd 3f 00 00 	mov    0x3fdd(%rip),%rax        # 4fe8 <__gmon_start__>
    100b:	48 85 c0             	test   %rax,%rax
    100e:	74 02                	je     1012 <_init+0x12>
    1010:	ff d0                	callq  *%rax
    1012:	48 83 c4 08          	add    $0x8,%rsp
    1016:	c3                   	retq   

Disassembly of section .plt:

0000000000001020 <.plt>:
    1020:	ff 35 e2 3f 00 00    	pushq  0x3fe2(%rip)        # 5008 <_GLOBAL_OFFSET_TABLE_+0x8>
    1026:	ff 25 e4 3f 00 00    	jmpq   *0x3fe4(%rip)        # 5010 <_GLOBAL_OFFSET_TABLE_+0x10>
    102c:	0f 1f 40 00          	nopl   0x0(%rax)

Disassembly of section .plt.got:

0000000000001030 <__cxa_finalize@plt>:
    1030:	ff 25 c2 3f 00 00    	jmpq   *0x3fc2(%rip)        # 4ff8 <__cxa_finalize@GLIBC_2.2.5>
    1036:	66 90                	xchg   %ax,%ax

Disassembly of section .text:

0000000000001040 <deregister_tm_clones>:
    1040:	48 8d 3d d9 3f 00 00 	lea    0x3fd9(%rip),%rdi        # 5020 <__TMC_END__>
    1047:	48 8d 05 d2 3f 00 00 	lea    0x3fd2(%rip),%rax        # 5020 <__TMC_END__>
    104e:	48 39 f8             	cmp    %rdi,%rax
    1051:	74 15                	je     1068 <deregister_tm_clones+0x28>
    1053:	48 8b 05 86 3f 00 00 	mov    0x3f86(%rip),%rax        # 4fe0 <_ITM_deregisterTMCloneTable>
    105a:	48 85 c0             	test   %rax,%rax
    105d:	74 09                	je     1068 <deregister_tm_clones+0x28>
    105f:	ff e0                	jmpq   *%rax
    1061:	0f 1f 80 00 00 00 00 	nopl   0x0(%rax)
    1068:	c3                   	retq   
    1069:	0f 1f 80 00 00 00 00 	nopl   0x0(%rax)

0000000000001070 <register_tm_clones>:
    1070:	48 8d 3d a9 3f 00 00 	lea    0x3fa9(%rip),%rdi        # 5020 <__TMC_END__>
    1077:	48 8d 35 a2 3f 00 00 	lea    0x3fa2(%rip),%rsi        # 5020 <__TMC_END__>
    107e:	48 29 fe             	sub    %rdi,%rsi
    1081:	48 c1 fe 03          	sar    $0x3,%rsi
    1085:	48 89 f0             	mov    %rsi,%rax
    1088:	48 c1 e8 3f          	shr    $0x3f,%rax
    108c:	48 01 c6             	add    %rax,%rsi
    108f:	48 d1 fe             	sar    %rsi
    1092:	74 14                	je     10a8 <register_tm_clones+0x38>
    1094:	48 8b 05 55 3f 00 00 	mov    0x3f55(%rip),%rax        # 4ff0 <_ITM_registerTMCloneTable>
    109b:	48 85 c0             	test   %rax,%rax
    109e:	74 08                	je     10a8 <register_tm_clones+0x38>
    10a0:	ff e0                	jmpq   *%rax
    10a2:	66 0f 1f 44 00 00    	nopw   0x0(%rax,%rax,1)
    10a8:	c3                   	retq   
    10a9:	0f 1f 80 00 00 00 00 	nopl   0x0(%rax)

00000000000010b0 <__do_global_dtors_aux>:
    10b0:	80 3d 69 3f 00 00 00 	cmpb   $0x0,0x3f69(%rip)        # 5020 <__TMC_END__>
    10b7:	75 2f                	jne    10e8 <__do_global_dtors_aux+0x38>
    10b9:	55                   	push   %rbp
    10ba:	48 83 3d 36 3f 00 00 	cmpq   $0x0,0x3f36(%rip)        # 4ff8 <__cxa_finalize@GLIBC_2.2.5>
    10c1:	00 
    10c2:	48 89 e5             	mov    %rsp,%rbp
    10c5:	74 0c                	je     10d3 <__do_global_dtors_aux+0x23>
    10c7:	48 8b 3d 4a 3f 00 00 	mov    0x3f4a(%rip),%rdi        # 5018 <__dso_handle>
    10ce:	e8 5d ff ff ff       	callq  1030 <__cxa_finalize@plt>
    10d3:	e8 68 ff ff ff       	callq  1040 <deregister_tm_clones>
    10d8:	c6 05 41 3f 00 00 01 	movb   $0x1,0x3f41(%rip)        # 5020 <__TMC_END__>
    10df:	5d                   	pop    %rbp
    10e0:	c3                   	retq   
    10e1:	0f 1f 80 00 00 00 00 	nopl   0x0(%rax)
    10e8:	c3                   	retq   
    10e9:	0f 1f 80 00 00 00 00 	nopl   0x0(%rax)

00000000000010f0 <frame_dummy>:
    10f0:	e9 7b ff ff ff       	jmpq   1070 <register_tm_clones>

00000000000010f5 <f19>:
    10f5:	85 ff                	test   %edi,%edi
    10f7:	0f 8e 42 01 00 00    	jle    123f <f19+0x14a>
    10fd:	41 55                	push   %r13
    10ff:	41 54                	push   %r12
    1101:	55                   	push   %rbp
    1102:	53                   	push   %rbx
    1103:	48 83 ec 08          	sub    $0x8,%rsp
    1107:	41 89 cd             	mov    %ecx,%r13d
    110a:	41 89 f4             	mov    %esi,%r12d
    110d:	89 fd                	mov    %edi,%ebp
    110f:	8d bf 21 e1 ff ff    	lea    -0x1edf(%rdi),%edi
    1115:	ba c2 fa ff ff       	mov    $0xfffffac2,%edx
    111a:	89 ee                	mov    %ebp,%esi
    111c:	e8 b5 0c 00 00       	callq  1dd6 <f14>
    1121:	69 d8 37 fc c3 ff    	imul   $0xffc3fc37,%eax,%ebx
    1127:	81 eb da 0f 00 35    	sub    $0x35000fda,%ebx
    112d:	8d bd cf fd ff ff    	lea    -0x231(%rbp),%edi
    1133:	e8 8e 0a 00 00       	callq  1bc6 <f11>
    1138:	69 c0 5e c3 00 00    	imul   $0xc35e,%eax,%eax
    113e:	01 c3                	add    %eax,%ebx
    1140:	8d bd 35 ff ff ff    	lea    -0xcb(%rbp),%edi
    1146:	b9 17 ff c2 ff       	mov    $0xffc2ff17,%ecx
    114b:	ba 39 1e e8 00       	mov    $0xe81e39,%edx
    1150:	44 89 e6             	mov    %r12d,%esi
    1153:	e8 27 02 00 00       	callq  137f <f13>
    1158:	69 c0 cb 25 00 00    	imul   $0x25cb,%eax,%eax
    115e:	29 c3                	sub    %eax,%ebx
    1160:	8d bd 13 f4 ff ff    	lea    -0xbed(%rbp),%edi
    1166:	41 b9 ff cb 00 00    	mov    $0xcbff,%r9d
    116c:	45 89 e8             	mov    %r13d,%r8d
    116f:	89 e9                	mov    %ebp,%ecx
    1171:	ba d0 cb ff ff       	mov    $0xffffcbd0,%edx
    1176:	be 6e c3 ff ff       	mov    $0xffffc36e,%esi
    117b:	e8 90 0f 00 00       	callq  2110 <f2>
    1180:	69 c0 c3 0d 00 00    	imul   $0xdc3,%eax,%eax
    1186:	01 c3                	add    %eax,%ebx
    1188:	8d bd 17 f6 ff ff    	lea    -0x9e9(%rbp),%edi
    118e:	41 b8 46 f1 c2 ff    	mov    $0xffc2f146,%r8d
    1194:	b9 e1 10 cb 00       	mov    $0xcb10e1,%ecx
    1199:	ba db c2 ff ff       	mov    $0xffffc2db,%edx
    119e:	be 3b fb c2 ff       	mov    $0xffc2fb3b,%esi
    11a3:	e8 4d ff ff ff       	callq  10f5 <f19>
    11a8:	48 98                	cltq   
    11aa:	ba fb 00 00 cb       	mov    $0xcb0000fb,%edx
    11af:	48 0f af c2          	imul   %rdx,%rax
    11b3:	29 c3                	sub    %eax,%ebx
    11b5:	8d bd 35 e6 ff ff    	lea    -0x19cb(%rbp),%edi
    11bb:	e8 f5 04 00 00       	callq  16b5 <f5>
    11c0:	69 c0 76 e8 00 00    	imul   $0xe876,%eax,%eax
    11c6:	29 c3                	sub    %eax,%ebx
    11c8:	8d bd d7 eb ff ff    	lea    -0x1429(%rbp),%edi
    11ce:	e8 d9 03 00 00       	callq  15ac <f6>
    11d3:	69 c0 ee cb ff ff    	imul   $0xffffcbee,%eax,%eax
    11d9:	29 c3                	sub    %eax,%ebx
    11db:	8d bd 1f dd ff ff    	lea    -0x22e1(%rbp),%edi
    11e1:	41 b8 d3 ca ff ff    	mov    $0xffffcad3,%r8d
    11e7:	b9 0a db e8 ff       	mov    $0xffe8db0a,%ecx
    11ec:	ba 61 c3 00 00       	mov    $0xc361,%edx
    11f1:	89 ee                	mov    %ebp,%esi
    11f3:	e8 7c 02 00 00       	callq  1474 <f17>
    11f8:	69 c0 cb 04 00 00    	imul   $0x4cb,%eax,%eax
    11fe:	01 c3                	add    %eax,%ebx
    1200:	8d bd 02 e3 ff ff    	lea    -0x1cfe(%rbp),%edi
    1206:	41 b8 97 13 e8 00    	mov    $0xe81397,%r8d
    120c:	89 e9                	mov    %ebp,%ecx
    120e:	44 89 e2             	mov    %r12d,%edx
    1211:	44 89 e6             	mov    %r12d,%esi
    1214:	e8 75 07 00 00       	callq  198e <f7>
    1219:	69 c0 7d ca ff ff    	imul   $0xffffca7d,%eax,%eax
    121f:	29 c3                	sub    %eax,%ebx
    1221:	8d bd 8e eb ff ff    	lea    -0x1472(%rbp),%edi
    1227:	e8 ee 08 00 00       	callq  1b1a <f0>
    122c:	69 c0 7e 0c e8 00    	imul   $0xe80c7e,%eax,%eax
    1232:	01 d8                	add    %ebx,%eax
    1234:	48 83 c4 08          	add    $0x8,%rsp
    1238:	5b                   	pop    %rbx
    1239:	5d                   	pop    %rbp
    123a:	41 5c                	pop    %r12
    123c:	41 5d                	pop    %r13
    123e:	c3                   	retq   
    123f:	b8 26 f0 ff ca       	mov    $0xcafff026,%eax
    1244:	c3                   	retq   

0000000000001245 <f18>:
    1245:	85 ff                	test   %edi,%edi
    1247:	0f 8e 2c 01 00 00    	jle    1379 <f18+0x134>
    124d:	41 57                	push   %r15
    124f:	41 56                	push   %r14
    1251:	41 55                	push   %r13
    1253:	41 54                	push   %r12
    1255:	55                   	push   %rbp
    1256:	53                   	push   %rbx
    1257:	48 83 ec 08          	sub    $0x8,%rsp
    125b:	45 89 c5             	mov    %r8d,%r13d
    125e:	41 89 ce             	mov    %ecx,%r14d
    1261:	41 89 d4             	mov    %edx,%r12d
    1264:	41 89 f7             	mov    %esi,%r15d
    1267:	89 fb                	mov    %edi,%ebx
    1269:	8d bf 86 e5 ff ff    	lea    -0x1a7a(%rdi),%edi
    126f:	be cb 01 00 00       	mov    $0x1cb,%esi
    1274:	e8 5d 0b 00 00       	callq  1dd6 <f14>
    1279:	69 c0 90 ca ff ff    	imul   $0xffffca90,%eax,%eax
    127f:	bd 6a c2 ff ff       	mov    $0xffffc26a,%ebp
    1284:	29 c5                	sub    %eax,%ebp
    1286:	8d bb c4 e6 ff ff    	lea    -0x193c(%rbx),%edi
    128c:	41 b8 0f 14 c3 00    	mov    $0xc3140f,%r8d
    1292:	89 d9                	mov    %ebx,%ecx
    1294:	ba 12 11 c3 00       	mov    $0xc31112,%edx
    1299:	be cb f8 ff ff       	mov    $0xfffff8cb,%esi
    129e:	e8 eb 06 00 00       	callq  198e <f7>
    12a3:	69 c0 cb 22 00 00    	imul   $0x22cb,%eax,%eax
    12a9:	29 c5                	sub    %eax,%ebp
    12ab:	8d bb 3e ef ff ff    	lea    -0x10c2(%rbx),%edi
    12b1:	89 da                	mov    %ebx,%edx
    12b3:	be 04 f0 ff c3       	mov    $0xc3fff004,%esi
    12b8:	e8 1b 0f 00 00       	callq  21d8 <f9>
    12bd:	69 c0 15 f0 c3 ff    	imul   $0xffc3f015,%eax,%eax
    12c3:	29 c5                	sub    %eax,%ebp
    12c5:	8d bb 84 db ff ff    	lea    -0x247c(%rbx),%edi
    12cb:	44 89 e1             	mov    %r12d,%ecx
    12ce:	ba cb 04 00 00       	mov    $0x4cb,%edx
    12d3:	44 89 ee             	mov    %r13d,%esi
    12d6:	e8 b6 05 00 00       	callq  1891 <f15>
    12db:	69 c0 34 ef c2 ff    	imul   $0xffc2ef34,%eax,%eax
    12e1:	29 c5                	sub    %eax,%ebp
    12e3:	8d bb 3f e4 ff ff    	lea    -0x1bc1(%rbx),%edi
    12e9:	ba 36 ec ff c2       	mov    $0xc2ffec36,%edx
    12ee:	44 89 e6             	mov    %r12d,%esi
    12f1:	e8 d2 0b 00 00       	callq  1ec8 <f12>
    12f6:	69 c0 8b e5 c2 ff    	imul   $0xffc2e58b,%eax,%eax
    12fc:	29 c5                	sub    %eax,%ebp
    12fe:	8d bb 35 ff ff ff    	lea    -0xcb(%rbx),%edi
    1304:	e8 11 08 00 00       	callq  1b1a <f0>
    1309:	48 98                	cltq   
    130b:	ba 53 09 00 c2       	mov    $0xc2000953,%edx
    1310:	48 0f af c2          	imul   %rdx,%rax
    1314:	01 c5                	add    %eax,%ebp
    1316:	8d bb be e0 ff ff    	lea    -0x1f42(%rbx),%edi
    131c:	e8 7b 0f 00 00       	callq  229c <f4>
    1321:	69 c0 09 ec ca ff    	imul   $0xffcaec09,%eax,%eax
    1327:	29 c5                	sub    %eax,%ebp
    1329:	8d bb 1a f6 ff ff    	lea    -0x9e6(%rbx),%edi
    132f:	44 89 f9             	mov    %r15d,%ecx
    1332:	ba 53 15 00 cb       	mov    $0xcb001553,%edx
    1337:	44 89 f6             	mov    %r14d,%esi
    133a:	e8 1c 07 00 00       	callq  1a5b <f1>
    133f:	69 c0 db e8 ff ff    	imul   $0xffffe8db,%eax,%eax
    1345:	29 c5                	sub    %eax,%ebp
    1347:	8d bb b6 e1 ff ff    	lea    -0x1e4a(%rbx),%edi
    134d:	45 89 e0             	mov    %r12d,%r8d
    1350:	b9 0b 1c c3 00       	mov    $0xc31c0b,%ecx
    1355:	ba ff 1d 00 c2       	mov    $0xc2001dff,%edx
    135a:	44 89 ee             	mov    %r13d,%esi
    135d:	e8 93 fd ff ff       	callq  10f5 <f19>
    1362:	69 c0 f0 f2 c3 ff    	imul   $0xffc3f2f0,%eax,%eax
    1368:	01 e8                	add    %ebp,%eax
    136a:	48 83 c4 08          	add    $0x8,%rsp
    136e:	5b                   	pop    %rbx
    136f:	5d                   	pop    %rbp
    1370:	41 5c                	pop    %r12
    1372:	41 5d                	pop    %r13
    1374:	41 5e                	pop    %r14
    1376:	41 5f                	pop    %r15
    1378:	c3                   	retq   
    1379:	b8 6a c2 ff ff       	mov    $0xffffc26a,%eax
    137e:	c3                   	retq   

000000000000137f <f13>:
    137f:	85 ff                	test   %edi,%edi
    1381:	0f 8e e7 00 00 00    	jle    146e <f13+0xef>
    1387:	41 57                	push   %r15
    1389:	41 56                	push   %r14
    138b:	41 55                	push   %r13
    138d:	41 54                	push   %r12
    138f:	55                   	push   %rbp
    1390:	53                   	push   %rbx
    1391:	48 83 ec 08          	sub    $0x8,%rsp
    1395:	41 89 cc             	mov    %ecx,%r12d
    1398:	41 89 d7             	mov    %edx,%r15d
    139b:	41 89 f5             	mov    %esi,%r13d
    139e:	89 fb                	mov    %edi,%ebx
    13a0:	8d bf 6c f2 ff ff    	lea    -0xd94(%rdi),%edi
    13a6:	89 d1                	mov    %edx,%ecx
    13a8:	44 89 e2             	mov    %r12d,%edx
    13ab:	be e9 e8 ff ff       	mov    $0xffffe8e9,%esi
    13b0:	e8 dc 04 00 00       	callq  1891 <f15>
    13b5:	69 e8 c3 03 00 00    	imul   $0x3c3,%eax,%ebp
    13bb:	44 8d b5 cb cb 00 00 	lea    0xcbcb(%rbp),%r14d
    13c2:	8d bb 8c de ff ff    	lea    -0x2174(%rbx),%edi
    13c8:	45 89 e0             	mov    %r12d,%r8d
    13cb:	b9 d3 17 cb 00       	mov    $0xcb17d3,%ecx
    13d0:	89 da                	mov    %ebx,%edx
    13d2:	44 89 fe             	mov    %r15d,%esi
    13d5:	e8 2d 0c 00 00       	callq  2007 <f3>
    13da:	69 e8 ab f7 ff e8    	imul   $0xe8fff7ab,%eax,%ebp
    13e0:	44 01 f5             	add    %r14d,%ebp
    13e3:	8d bb 87 dc ff ff    	lea    -0x2379(%rbx),%edi
    13e9:	b9 9f f5 e8 ff       	mov    $0xffe8f59f,%ecx
    13ee:	ba 0f c2 00 00       	mov    $0xc20f,%edx
    13f3:	89 de                	mov    %ebx,%esi
    13f5:	e8 85 ff ff ff       	callq  137f <f13>
    13fa:	69 c0 c3 f7 ff ff    	imul   $0xfffff7c3,%eax,%eax
    1400:	01 c5                	add    %eax,%ebp
    1402:	8d bb 72 e2 ff ff    	lea    -0x1d8e(%rbx),%edi
    1408:	41 b8 e7 ca 00 00    	mov    $0xcae7,%r8d
    140e:	89 d9                	mov    %ebx,%ecx
    1410:	ba e8 da ff ff       	mov    $0xffffdae8,%edx
    1415:	89 de                	mov    %ebx,%esi
    1417:	e8 29 fe ff ff       	callq  1245 <f18>
    141c:	69 c0 c3 e1 ff ff    	imul   $0xffffe1c3,%eax,%eax
    1422:	01 c5                	add    %eax,%ebp
    1424:	8d bb 0b e6 ff ff    	lea    -0x19f5(%rbx),%edi
    142a:	45 89 e8             	mov    %r13d,%r8d
    142d:	44 89 e9             	mov    %r13d,%ecx
    1430:	89 da                	mov    %ebx,%edx
    1432:	44 89 e6             	mov    %r12d,%esi
    1435:	e8 cd 0b 00 00       	callq  2007 <f3>
    143a:	69 c0 b0 c3 ff ff    	imul   $0xffffc3b0,%eax,%eax
    1440:	01 c5                	add    %eax,%ebp
    1442:	8d bb f6 e8 ff ff    	lea    -0x170a(%rbx),%edi
    1448:	ba e8 18 00 00       	mov    $0x18e8,%edx
    144d:	be a1 f2 c2 ff       	mov    $0xffc2f2a1,%esi
    1452:	e8 7f 09 00 00       	callq  1dd6 <f14>
    1457:	69 c0 34 c3 ff ff    	imul   $0xffffc334,%eax,%eax
    145d:	01 e8                	add    %ebp,%eax
    145f:	48 83 c4 08          	add    $0x8,%rsp
    1463:	5b                   	pop    %rbx
    1464:	5d                   	pop    %rbp
    1465:	41 5c                	pop    %r12
    1467:	41 5d                	pop    %r13
    1469:	41 5e                	pop    %r14
    146b:	41 5f                	pop    %r15
    146d:	c3                   	retq   
    146e:	b8 cb cb 00 00       	mov    $0xcbcb,%eax
    1473:	c3                   	retq   

0000000000001474 <f17>:
    1474:	85 ff                	test   %edi,%edi
    1476:	0f 8e 2a 01 00 00    	jle    15a6 <f17+0x132>
    147c:	41 57                	push   %r15
    147e:	41 56                	push   %r14
    1480:	41 55                	push   %r13
    1482:	41 54                	push   %r12
    1484:	55                   	push   %rbp
    1485:	53                   	push   %rbx
    1486:	48 83 ec 08          	sub    $0x8,%rsp
    148a:	45 89 c7             	mov    %r8d,%r15d
    148d:	41 89 ce             	mov    %ecx,%r14d
    1490:	41 89 d5             	mov    %edx,%r13d
    1493:	41 89 f4             	mov    %esi,%r12d
    1496:	89 fb                	mov    %edi,%ebx
    1498:	8d bf 26 e8 ff ff    	lea    -0x17da(%rdi),%edi
    149e:	89 f2                	mov    %esi,%edx
    14a0:	44 89 ee             	mov    %r13d,%esi
    14a3:	e8 30 0d 00 00       	callq  21d8 <f9>
    14a8:	69 e8 c3 11 00 00    	imul   $0x11c3,%eax,%ebp
    14ae:	81 ed fe f1 ff 34    	sub    $0x34fff1fe,%ebp
    14b4:	8d bb 19 e3 ff ff    	lea    -0x1ce7(%rbx),%edi
    14ba:	45 89 f8             	mov    %r15d,%r8d
    14bd:	44 89 f9             	mov    %r15d,%ecx
    14c0:	ba 6e 01 c2 00       	mov    $0xc2016e,%edx
    14c5:	44 89 fe             	mov    %r15d,%esi
    14c8:	e8 6d 09 00 00       	callq  1e3a <f16>
    14cd:	69 c0 c3 11 00 00    	imul   $0x11c3,%eax,%eax
    14d3:	29 c5                	sub    %eax,%ebp
    14d5:	8d bb 0f f4 ff ff    	lea    -0xbf1(%rbx),%edi
    14db:	e8 cc 00 00 00       	callq  15ac <f6>
    14e0:	69 c0 67 c2 ff ff    	imul   $0xffffc267,%eax,%eax
    14e6:	01 c5                	add    %eax,%ebp
    14e8:	8d bb 41 f0 ff ff    	lea    -0xfbf(%rbx),%edi
    14ee:	ba 32 e8 ff ff       	mov    $0xffffe832,%edx
    14f3:	be ff 18 ca 00       	mov    $0xca18ff,%esi
    14f8:	e8 db 0c 00 00       	callq  21d8 <f9>
    14fd:	69 c0 ce fe ff c2    	imul   $0xc2fffece,%eax,%eax
    1503:	29 c5                	sub    %eax,%ebp
    1505:	8d bb e3 de ff ff    	lea    -0x211d(%rbx),%edi
    150b:	44 89 f1             	mov    %r14d,%ecx
    150e:	89 da                	mov    %ebx,%edx
    1510:	44 89 fe             	mov    %r15d,%esi
    1513:	e8 67 fe ff ff       	callq  137f <f13>
    1518:	69 c0 df 07 e8 00    	imul   $0xe807df,%eax,%eax
    151e:	29 c5                	sub    %eax,%ebp
    1520:	8d bb d7 e0 ff ff    	lea    -0x1f29(%rbx),%edi
    1526:	45 89 f0             	mov    %r14d,%r8d
    1529:	44 89 f1             	mov    %r14d,%ecx
    152c:	44 89 f2             	mov    %r14d,%edx
    152f:	89 de                	mov    %ebx,%esi
    1531:	e8 d1 0a 00 00       	callq  2007 <f3>
    1536:	69 c0 23 ca 00 00    	imul   $0xca23,%eax,%eax
    153c:	01 c5                	add    %eax,%ebp
    153e:	8d bb 1a e5 ff ff    	lea    -0x1ae6(%rbx),%edi
    1544:	45 89 e0             	mov    %r12d,%r8d
    1547:	b9 3a 11 ca 00       	mov    $0xca113a,%ecx
    154c:	44 89 ea             	mov    %r13d,%edx
    154f:	be a9 c2 ff ff       	mov    $0xffffc2a9,%esi
    1554:	e8 35 04 00 00       	callq  198e <f7>
    1559:	69 c0 12 e6 ff c3    	imul   $0xc3ffe612,%eax,%eax
    155f:	29 c5                	sub    %eax,%ebp
    1561:	8d bb f1 f7 ff ff    	lea    -0x80f(%rbx),%edi
    1567:	e8 40 00 00 00       	callq  15ac <f6>
    156c:	69 c0 21 dc ff cb    	imul   $0xcbffdc21,%eax,%eax
    1572:	01 c5                	add    %eax,%ebp
    1574:	8d bb ff f5 ff ff    	lea    -0xa01(%rbx),%edi
    157a:	41 b8 bd 02 c2 00    	mov    $0xc202bd,%r8d
    1580:	89 d9                	mov    %ebx,%ecx
    1582:	ba 42 e8 ff ff       	mov    $0xffffe842,%edx
    1587:	44 89 e6             	mov    %r12d,%esi
    158a:	e8 b6 fc ff ff       	callq  1245 <f18>
    158f:	69 c0 ae 03 cb 00    	imul   $0xcb03ae,%eax,%eax
    1595:	01 e8                	add    %ebp,%eax
    1597:	48 83 c4 08          	add    $0x8,%rsp
    159b:	5b                   	pop    %rbx
    159c:	5d                   	pop    %rbp
    159d:	41 5c                	pop    %r12
    159f:	41 5d                	pop    %r13
    15a1:	41 5e                	pop    %r14
    15a3:	41 5f                	pop    %r15
    15a5:	c3                   	retq   
    15a6:	b8 02 0e 00 cb       	mov    $0xcb000e02,%eax
    15ab:	c3                   	retq   

00000000000015ac <f6>:
    15ac:	85 ff                	test   %edi,%edi
    15ae:	0f 8e fb 00 00 00    	jle    16af <f6+0x103>
    15b4:	55                   	push   %rbp
    15b5:	53                   	push   %rbx
    15b6:	48 83 ec 08          	sub    $0x8,%rsp
    15ba:	89 fb                	mov    %edi,%ebx
    15bc:	8d bf 49 eb ff ff    	lea    -0x14b7(%rdi),%edi
    15c2:	89 da                	mov    %ebx,%edx
    15c4:	be ca 12 00 00       	mov    $0x12ca,%esi
    15c9:	e8 0a 0c 00 00       	callq  21d8 <f9>
    15ce:	69 e8 e8 ec ff ff    	imul   $0xffffece8,%eax,%ebp
    15d4:	81 ed 35 0b 00 00    	sub    $0xb35,%ebp
    15da:	8d bb 78 f2 ff ff    	lea    -0xd88(%rbx),%edi
    15e0:	e8 b7 0c 00 00       	callq  229c <f4>
    15e5:	69 c0 e8 0c 00 00    	imul   $0xce8,%eax,%eax
    15eb:	01 c5                	add    %eax,%ebp
    15ed:	8d bb a1 fb ff ff    	lea    -0x45f(%rbx),%edi
    15f3:	41 b8 21 f2 ff c2    	mov    $0xc2fff221,%r8d
    15f9:	b9 9f 1d ca 00       	mov    $0xca1d9f,%ecx
    15fe:	89 da                	mov    %ebx,%edx
    1600:	89 de                	mov    %ebx,%esi
    1602:	e8 87 03 00 00       	callq  198e <f7>
    1607:	69 c0 c8 ca ff ff    	imul   $0xffffcac8,%eax,%eax
    160d:	29 c5                	sub    %eax,%ebp
    160f:	8d bb 0a de ff ff    	lea    -0x21f6(%rbx),%edi
    1615:	89 da                	mov    %ebx,%edx
    1617:	89 de                	mov    %ebx,%esi
    1619:	e8 ba 0b 00 00       	callq  21d8 <f9>
    161e:	69 c0 cb ea ff ff    	imul   $0xffffeacb,%eax,%eax
    1624:	01 c5                	add    %eax,%ebp
    1626:	8d bb 98 ed ff ff    	lea    -0x1268(%rbx),%edi
    162c:	41 b8 4f e8 ff ff    	mov    $0xffffe84f,%r8d
    1632:	b9 e0 e8 ff ff       	mov    $0xffffe8e0,%ecx
    1637:	89 da                	mov    %ebx,%edx
    1639:	89 de                	mov    %ebx,%esi
    163b:	e8 34 fe ff ff       	callq  1474 <f17>
    1640:	69 c0 ed e2 cb ff    	imul   $0xffcbe2ed,%eax,%eax
    1646:	01 c5                	add    %eax,%ebp
    1648:	8d bb 06 d9 ff ff    	lea    -0x26fa(%rbx),%edi
    164e:	41 89 d8             	mov    %ebx,%r8d
    1651:	b9 cf ca 00 00       	mov    $0xcacf,%ecx
    1656:	89 da                	mov    %ebx,%edx
    1658:	89 de                	mov    %ebx,%esi
    165a:	e8 15 fe ff ff       	callq  1474 <f17>
    165f:	69 c0 c2 1e 00 00    	imul   $0x1ec2,%eax,%eax
    1665:	01 c5                	add    %eax,%ebp
    1667:	8d bb 0a e8 ff ff    	lea    -0x17f6(%rbx),%edi
    166d:	b9 73 de ca ff       	mov    $0xffcade73,%ecx
    1672:	89 da                	mov    %ebx,%edx
    1674:	be aa e8 ff ca       	mov    $0xcaffe8aa,%esi
    1679:	e8 13 02 00 00       	callq  1891 <f15>
    167e:	69 c0 c3 e3 ff ff    	imul   $0xffffe3c3,%eax,%eax
    1684:	29 c5                	sub    %eax,%ebp
    1686:	8d bb 0a ed ff ff    	lea    -0x12f6(%rbx),%edi
    168c:	41 89 d8             	mov    %ebx,%r8d
    168f:	b9 26 03 00 e8       	mov    $0xe8000326,%ecx
    1694:	ba cb 09 00 00       	mov    $0x9cb,%edx
    1699:	89 de                	mov    %ebx,%esi
    169b:	e8 ee 02 00 00       	callq  198e <f7>
    16a0:	69 c0 c2 0c 00 00    	imul   $0xcc2,%eax,%eax
    16a6:	01 e8                	add    %ebp,%eax
    16a8:	48 83 c4 08          	add    $0x8,%rsp
    16ac:	5b                   	pop    %rbx
    16ad:	5d                   	pop    %rbp
    16ae:	c3                   	retq   
    16af:	b8 cb f4 ff ff       	mov    $0xfffff4cb,%eax
    16b4:	c3                   	retq   

00000000000016b5 <f5>:
    16b5:	85 ff                	test   %edi,%edi
    16b7:	0f 8e 56 01 00 00    	jle    1813 <f5+0x15e>
    16bd:	41 55                	push   %r13
    16bf:	41 54                	push   %r12
    16c1:	55                   	push   %rbp
    16c2:	53                   	push   %rbx
    16c3:	48 83 ec 08          	sub    $0x8,%rsp
    16c7:	89 fb                	mov    %edi,%ebx
    16c9:	8d bf 8b ec ff ff    	lea    -0x1375(%rdi),%edi
    16cf:	41 b8 d4 1f 00 c3    	mov    $0xc3001fd4,%r8d
    16d5:	b9 16 20 c2 00       	mov    $0xc22016,%ecx
    16da:	89 da                	mov    %ebx,%edx
    16dc:	be cb db ff ff       	mov    $0xffffdbcb,%esi
    16e1:	e8 a8 02 00 00       	callq  198e <f7>
    16e6:	69 e8 e8 e3 ff ff    	imul   $0xffffe3e8,%eax,%ebp
    16ec:	44 8d ad 15 eb c3 ff 	lea    -0x3c14eb(%rbp),%r13d
    16f3:	8d bb 1e f1 ff ff    	lea    -0xee2(%rbx),%edi
    16f9:	41 89 d8             	mov    %ebx,%r8d
    16fc:	b9 ae c3 00 00       	mov    $0xc3ae,%ecx
    1701:	ba 0d e8 ff ff       	mov    $0xffffe80d,%edx
    1706:	89 de                	mov    %ebx,%esi
    1708:	e8 38 fb ff ff       	callq  1245 <f18>
    170d:	48 63 e8             	movslq %eax,%rbp
    1710:	b8 36 03 00 cb       	mov    $0xcb000336,%eax
    1715:	48 0f af e8          	imul   %rax,%rbp
    1719:	44 01 ed             	add    %r13d,%ebp
    171c:	8d bb 3d f9 ff ff    	lea    -0x6c3(%rbx),%edi
    1722:	89 da                	mov    %ebx,%edx
    1724:	be 99 13 e8 00       	mov    $0xe81399,%esi
    1729:	e8 a8 06 00 00       	callq  1dd6 <f14>
    172e:	69 c0 af fa c2 ff    	imul   $0xffc2faaf,%eax,%eax
    1734:	01 c5                	add    %eax,%ebp
    1736:	8d bb c0 fc ff ff    	lea    -0x340(%rbx),%edi
    173c:	b9 c2 0a 00 00       	mov    $0xac2,%ecx
    1741:	ba cb 04 00 00       	mov    $0x4cb,%edx
    1746:	be cc c2 ff ff       	mov    $0xffffc2cc,%esi
    174b:	e8 0b 03 00 00       	callq  1a5b <f1>
    1750:	69 c0 c2 0e 00 00    	imul   $0xec2,%eax,%eax
    1756:	29 c5                	sub    %eax,%ebp
    1758:	8d bb 6a e6 ff ff    	lea    -0x1996(%rbx),%edi
    175e:	89 da                	mov    %ebx,%edx
    1760:	be 3f f7 e8 ff       	mov    $0xffe8f73f,%esi
    1765:	e8 6e 0a 00 00       	callq  21d8 <f9>
    176a:	44 69 e0 cb 17 00 00 	imul   $0x17cb,%eax,%r12d
    1771:	41 01 ec             	add    %ebp,%r12d
    1774:	8d bb ac df ff ff    	lea    -0x2054(%rbx),%edi
    177a:	41 89 d8             	mov    %ebx,%r8d
    177d:	89 d9                	mov    %ebx,%ecx
    177f:	ba 89 e2 e8 ff       	mov    $0xffe8e289,%edx
    1784:	89 de                	mov    %ebx,%esi
    1786:	e8 6a f9 ff ff       	callq  10f5 <f19>
    178b:	48 63 e8             	movslq %eax,%rbp
    178e:	b8 06 04 00 c3       	mov    $0xc3000406,%eax
    1793:	48 0f af e8          	imul   %rax,%rbp
    1797:	44 01 e5             	add    %r12d,%ebp
    179a:	8d bb e6 ee ff ff    	lea    -0x111a(%rbx),%edi
    17a0:	41 89 d8             	mov    %ebx,%r8d
    17a3:	b9 ca 07 00 00       	mov    $0x7ca,%ecx
    17a8:	89 da                	mov    %ebx,%edx
    17aa:	be 3b 20 00 c3       	mov    $0xc300203b,%esi
    17af:	e8 86 06 00 00       	callq  1e3a <f16>
    17b4:	69 c0 63 c2 00 00    	imul   $0xc263,%eax,%eax
    17ba:	29 c5                	sub    %eax,%ebp
    17bc:	8d bb cd ef ff ff    	lea    -0x1033(%rbx),%edi
    17c2:	89 da                	mov    %ebx,%edx
    17c4:	89 de                	mov    %ebx,%esi
    17c6:	e8 0d 0a 00 00       	callq  21d8 <f9>
    17cb:	69 c0 f3 c3 00 00    	imul   $0xc3f3,%eax,%eax
    17d1:	29 c5                	sub    %eax,%ebp
    17d3:	8d bb 4e e7 ff ff    	lea    -0x18b2(%rbx),%edi
    17d9:	41 89 d8             	mov    %ebx,%r8d
    17dc:	b9 c8 fc ff ca       	mov    $0xcafffcc8,%ecx
    17e1:	ba e8 0f 00 00       	mov    $0xfe8,%edx
    17e6:	89 de                	mov    %ebx,%esi
    17e8:	e8 1a 08 00 00       	callq  2007 <f3>
    17ed:	69 c0 c3 23 00 00    	imul   $0x23c3,%eax,%eax
    17f3:	01 c5                	add    %eax,%ebp
    17f5:	8d bb ae e3 ff ff    	lea    -0x1c52(%rbx),%edi
    17fb:	e8 ac fd ff ff       	callq  15ac <f6>
    1800:	69 c0 06 e6 ff c2    	imul   $0xc2ffe606,%eax,%eax
    1806:	01 e8                	add    %ebp,%eax
    1808:	48 83 c4 08          	add    $0x8,%rsp
    180c:	5b                   	pop    %rbx
    180d:	5d                   	pop    %rbp
    180e:	41 5c                	pop    %r12
    1810:	41 5d                	pop    %r13
    1812:	c3                   	retq   
    1813:	b8 15 eb c3 ff       	mov    $0xffc3eb15,%eax
    1818:	c3                   	retq   

0000000000001819 <f10>:
    1819:	85 ff                	test   %edi,%edi
    181b:	7e 6e                	jle    188b <f10+0x72>
    181d:	55                   	push   %rbp
    181e:	53                   	push   %rbx
    181f:	48 83 ec 08          	sub    $0x8,%rsp
    1823:	89 fd                	mov    %edi,%ebp
    1825:	8d bf b8 f4 ff ff    	lea    -0xb48(%rdi),%edi
    182b:	e8 85 fe ff ff       	callq  16b5 <f5>
    1830:	69 d8 3f c2 00 00    	imul   $0xc23f,%eax,%ebx
    1836:	81 eb ad 34 00 00    	sub    $0x34ad,%ebx
    183c:	8d bd 86 dc ff ff    	lea    -0x237a(%rbp),%edi
    1842:	ba dd de e8 ff       	mov    $0xffe8dedd,%edx
    1847:	be ca 10 00 00       	mov    $0x10ca,%esi
    184c:	e8 87 09 00 00       	callq  21d8 <f9>
    1851:	48 98                	cltq   
    1853:	ba 35 20 00 c3       	mov    $0xc3002035,%edx
    1858:	48 0f af c2          	imul   %rdx,%rax
    185c:	29 c3                	sub    %eax,%ebx
    185e:	8d bd a3 df ff ff    	lea    -0x205d(%rbp),%edi
    1864:	e8 b0 ff ff ff       	callq  1819 <f10>
    1869:	69 c0 18 cb ff ff    	imul   $0xffffcb18,%eax,%eax
    186f:	29 c3                	sub    %eax,%ebx
    1871:	8d bd f7 f8 ff ff    	lea    -0x709(%rbp),%edi
    1877:	e8 4a 03 00 00       	callq  1bc6 <f11>
    187c:	69 c0 c3 f3 ff ff    	imul   $0xfffff3c3,%eax,%eax
    1882:	01 d8                	add    %ebx,%eax
    1884:	48 83 c4 08          	add    $0x8,%rsp
    1888:	5b                   	pop    %rbx
    1889:	5d                   	pop    %rbp
    188a:	c3                   	retq   
    188b:	b8 53 cb ff ff       	mov    $0xffffcb53,%eax
    1890:	c3                   	retq   

0000000000001891 <f15>:
    1891:	85 ff                	test   %edi,%edi
    1893:	0f 8e ef 00 00 00    	jle    1988 <f15+0xf7>
    1899:	41 55                	push   %r13
    189b:	41 54                	push   %r12
    189d:	55                   	push   %rbp
    189e:	53                   	push   %rbx
    189f:	48 83 ec 08          	sub    $0x8,%rsp
    18a3:	41 89 cd             	mov    %ecx,%r13d
    18a6:	41 89 f4             	mov    %esi,%r12d
    18a9:	89 fd                	mov    %edi,%ebp
    18ab:	8d bf 24 f8 ff ff    	lea    -0x7dc(%rdi),%edi
    18b1:	e8 63 ff ff ff       	callq  1819 <f10>
    18b6:	69 d8 94 ea ff e8    	imul   $0xe8ffea94,%eax,%ebx
    18bc:	81 eb 18 15 00 00    	sub    $0x1518,%ebx
    18c2:	8d bd 45 db ff ff    	lea    -0x24bb(%rbp),%edi
    18c8:	e8 f9 02 00 00       	callq  1bc6 <f11>
    18cd:	69 c0 f0 ed c2 ff    	imul   $0xffc2edf0,%eax,%eax
    18d3:	01 c3                	add    %eax,%ebx
    18d5:	8d bd 69 fa ff ff    	lea    -0x597(%rbp),%edi
    18db:	41 b8 c2 18 00 00    	mov    $0x18c2,%r8d
    18e1:	b9 3e e6 e8 ff       	mov    $0xffe8e63e,%ecx
    18e6:	44 89 e2             	mov    %r12d,%edx
    18e9:	be b2 23 c3 00       	mov    $0xc323b2,%esi
    18ee:	e8 52 f9 ff ff       	callq  1245 <f18>
    18f3:	69 c0 0a 15 c3 00    	imul   $0xc3150a,%eax,%eax
    18f9:	29 c3                	sub    %eax,%ebx
    18fb:	8d bd 33 fd ff ff    	lea    -0x2cd(%rbp),%edi
    1901:	44 89 e2             	mov    %r12d,%edx
    1904:	44 89 ee             	mov    %r13d,%esi
    1907:	e8 ca 04 00 00       	callq  1dd6 <f14>
    190c:	69 c0 e8 fe ff ff    	imul   $0xfffffee8,%eax,%eax
    1912:	01 c3                	add    %eax,%ebx
    1914:	8d bd 62 dd ff ff    	lea    -0x229e(%rbp),%edi
    191a:	41 b8 a0 d9 ff cb    	mov    $0xcbffd9a0,%r8d
    1920:	b9 87 12 c3 00       	mov    $0xc31287,%ecx
    1925:	ba 2d d9 ff e8       	mov    $0xe8ffd92d,%edx
    192a:	44 89 e6             	mov    %r12d,%esi
    192d:	e8 42 fb ff ff       	callq  1474 <f17>
    1932:	48 98                	cltq   
    1934:	ba b6 0d 00 c2       	mov    $0xc2000db6,%edx
    1939:	48 0f af c2          	imul   %rdx,%rax
    193d:	01 c3                	add    %eax,%ebx
    193f:	8d bd 0a de ff ff    	lea    -0x21f6(%rbp),%edi
    1945:	e8 d0 01 00 00       	callq  1b1a <f0>
    194a:	69 c0 fb ca ff ff    	imul   $0xffffcafb,%eax,%eax
    1950:	29 c3                	sub    %eax,%ebx
    1952:	8d bd 81 da ff ff    	lea    -0x257f(%rbp),%edi
    1958:	41 b8 b5 25 c3 00    	mov    $0xc325b5,%r8d
    195e:	b9 ad e1 c2 ff       	mov    $0xffc2e1ad,%ecx
    1963:	44 89 e2             	mov    %r12d,%edx
    1966:	be 41 13 c2 00       	mov    $0xc21341,%esi
    196b:	e8 ca 04 00 00       	callq  1e3a <f16>
    1970:	48 98                	cltq   
    1972:	ba 45 03 00 e8       	mov    $0xe8000345,%edx
    1977:	48 0f af c2          	imul   %rdx,%rax
    197b:	01 d8                	add    %ebx,%eax
    197d:	48 83 c4 08          	add    $0x8,%rsp
    1981:	5b                   	pop    %rbx
    1982:	5d                   	pop    %rbp
    1983:	41 5c                	pop    %r12
    1985:	41 5d                	pop    %r13
    1987:	c3                   	retq   
    1988:	b8 e8 ea ff ff       	mov    $0xffffeae8,%eax
    198d:	c3                   	retq   

000000000000198e <f7>:
    198e:	85 ff                	test   %edi,%edi
    1990:	0f 8e bf 00 00 00    	jle    1a55 <f7+0xc7>
    1996:	41 56                	push   %r14
    1998:	41 55                	push   %r13
    199a:	41 54                	push   %r12
    199c:	55                   	push   %rbp
    199d:	53                   	push   %rbx
    199e:	41 89 d6             	mov    %edx,%r14d
    19a1:	41 89 f5             	mov    %esi,%r13d
    19a4:	41 89 fc             	mov    %edi,%r12d
    19a7:	8d bf 80 e7 ff ff    	lea    -0x1880(%rdi),%edi
    19ad:	e8 14 02 00 00       	callq  1bc6 <f11>
    19b2:	69 c0 4a ca 00 00    	imul   $0xca4a,%eax,%eax
    19b8:	bb 28 0a 00 e8       	mov    $0xe8000a28,%ebx
    19bd:	29 c3                	sub    %eax,%ebx
    19bf:	41 8d bc 24 33 e8 ff 	lea    -0x17cd(%r12),%edi
    19c6:	ff 
    19c7:	b9 f7 e8 ff ff       	mov    $0xffffe8f7,%ecx
    19cc:	44 89 e2             	mov    %r12d,%edx
    19cf:	44 89 f6             	mov    %r14d,%esi
    19d2:	e8 ba fe ff ff       	callq  1891 <f15>
    19d7:	69 c0 02 cb 00 00    	imul   $0xcb02,%eax,%eax
    19dd:	8d 2c 03             	lea    (%rbx,%rax,1),%ebp
    19e0:	41 8d bc 24 20 fc ff 	lea    -0x3e0(%r12),%edi
    19e7:	ff 
    19e8:	e8 bf fb ff ff       	callq  15ac <f6>
    19ed:	48 63 d8             	movslq %eax,%rbx
    19f0:	b8 cb 08 00 c3       	mov    $0xc30008cb,%eax
    19f5:	48 0f af d8          	imul   %rax,%rbx
    19f9:	01 eb                	add    %ebp,%ebx
    19fb:	41 8d bc 24 e2 fa ff 	lea    -0x51e(%r12),%edi
    1a02:	ff 
    1a03:	e8 be 01 00 00       	callq  1bc6 <f11>
    1a08:	69 c0 47 da c3 ff    	imul   $0xffc3da47,%eax,%eax
    1a0e:	01 c3                	add    %eax,%ebx
    1a10:	41 8d bc 24 63 e4 ff 	lea    -0x1b9d(%r12),%edi
    1a17:	ff 
    1a18:	44 89 ea             	mov    %r13d,%edx
    1a1b:	be 1a c2 00 00       	mov    $0xc21a,%esi
    1a20:	e8 b3 07 00 00       	callq  21d8 <f9>
    1a25:	69 c0 cb 02 00 00    	imul   $0x2cb,%eax,%eax
    1a2b:	01 c3                	add    %eax,%ebx
    1a2d:	41 8d bc 24 18 fa ff 	lea    -0x5e8(%r12),%edi
    1a34:	ff 
    1a35:	be 8d 12 c2 00       	mov    $0xc2128d,%esi
    1a3a:	e8 7f 02 00 00       	callq  1cbe <f8>
    1a3f:	48 98                	cltq   
    1a41:	ba a4 1f 00 ca       	mov    $0xca001fa4,%edx
    1a46:	48 0f af c2          	imul   %rdx,%rax
    1a4a:	01 d8                	add    %ebx,%eax
    1a4c:	5b                   	pop    %rbx
    1a4d:	5d                   	pop    %rbp
    1a4e:	41 5c                	pop    %r12
    1a50:	41 5d                	pop    %r13
    1a52:	41 5e                	pop    %r14
    1a54:	c3                   	retq   
    1a55:	b8 28 0a 00 e8       	mov    $0xe8000a28,%eax
    1a5a:	c3                   	retq   

0000000000001a5b <f1>:
    1a5b:	85 ff                	test   %edi,%edi
    1a5d:	0f 8e b1 00 00 00    	jle    1b14 <f1+0xb9>
    1a63:	41 56                	push   %r14
    1a65:	41 55                	push   %r13
    1a67:	41 54                	push   %r12
    1a69:	55                   	push   %rbp
    1a6a:	53                   	push   %rbx
    1a6b:	41 89 cd             	mov    %ecx,%r13d
    1a6e:	41 89 d4             	mov    %edx,%r12d
    1a71:	41 89 f6             	mov    %esi,%r14d
    1a74:	89 fd                	mov    %edi,%ebp
    1a76:	8d bf 0d fb ff ff    	lea    -0x4f3(%rdi),%edi
    1a7c:	ba c2 21 00 00       	mov    $0x21c2,%edx
    1a81:	be 78 0e c3 00       	mov    $0xc30e78,%esi
    1a86:	e8 4b 03 00 00       	callq  1dd6 <f14>
    1a8b:	48 63 d8             	movslq %eax,%rbx
    1a8e:	b8 44 0a 00 cb       	mov    $0xcb000a44,%eax
    1a93:	48 0f af d8          	imul   %rax,%rbx
    1a97:	81 eb b2 17 00 34    	sub    $0x340017b2,%ebx
    1a9d:	8d bd 1d ee ff ff    	lea    -0x11e3(%rbp),%edi
    1aa3:	41 b8 44 ca 00 00    	mov    $0xca44,%r8d
    1aa9:	44 89 f1             	mov    %r14d,%ecx
    1aac:	89 ea                	mov    %ebp,%edx
    1aae:	44 89 f6             	mov    %r14d,%esi
    1ab1:	e8 51 05 00 00       	callq  2007 <f3>
    1ab6:	69 c0 ca 1f 00 00    	imul   $0x1fca,%eax,%eax
    1abc:	29 c3                	sub    %eax,%ebx
    1abe:	8d 7d 91             	lea    -0x6f(%rbp),%edi
    1ac1:	41 b8 2a fa ff c2    	mov    $0xc2fffa2a,%r8d
    1ac7:	44 89 e1             	mov    %r12d,%ecx
    1aca:	44 89 ea             	mov    %r13d,%edx
    1acd:	44 89 ee             	mov    %r13d,%esi
    1ad0:	e8 b9 fe ff ff       	callq  198e <f7>
    1ad5:	48 98                	cltq   
    1ad7:	ba c6 1c 00 c2       	mov    $0xc2001cc6,%edx
    1adc:	48 0f af c2          	imul   %rdx,%rax
    1ae0:	01 c3                	add    %eax,%ebx
    1ae2:	8d bd 07 f0 ff ff    	lea    -0xff9(%rbp),%edi
    1ae8:	45 89 e1             	mov    %r12d,%r9d
    1aeb:	41 89 e8             	mov    %ebp,%r8d
    1aee:	b9 0c c2 00 00       	mov    $0xc20c,%ecx
    1af3:	8d 92 4b cf ff 08    	lea    0x8ffcf4b(%rdx),%edx
    1af9:	be 64 ca 00 00       	mov    $0xca64,%esi
    1afe:	e8 0d 06 00 00       	callq  2110 <f2>
    1b03:	69 c0 91 07 c3 00    	imul   $0xc30791,%eax,%eax
    1b09:	01 d8                	add    %ebx,%eax
    1b0b:	5b                   	pop    %rbx
    1b0c:	5d                   	pop    %rbp
    1b0d:	41 5c                	pop    %r12
    1b0f:	41 5d                	pop    %r13
    1b11:	41 5e                	pop    %r14
    1b13:	c3                   	retq   
    1b14:	b8 4e e8 ff cb       	mov    $0xcbffe84e,%eax
    1b19:	c3                   	retq   

0000000000001b1a <f0>:
    1b1a:	85 ff                	test   %edi,%edi
    1b1c:	0f 8e 9e 00 00 00    	jle    1bc0 <f0+0xa6>
    1b22:	55                   	push   %rbp
    1b23:	53                   	push   %rbx
    1b24:	48 83 ec 08          	sub    $0x8,%rsp
    1b28:	89 fb                	mov    %edi,%ebx
    1b2a:	8d bf 4c dd ff ff    	lea    -0x22b4(%rdi),%edi
    1b30:	89 de                	mov    %ebx,%esi
    1b32:	e8 87 01 00 00       	callq  1cbe <f8>
    1b37:	69 c0 8a ca ff ff    	imul   $0xffffca8a,%eax,%eax
    1b3d:	bd cb 10 00 00       	mov    $0x10cb,%ebp
    1b42:	29 c5                	sub    %eax,%ebp
    1b44:	8d bb 88 f0 ff ff    	lea    -0xf78(%rbx),%edi
    1b4a:	41 b8 27 e8 c2 ff    	mov    $0xffc2e827,%r8d
    1b50:	89 d9                	mov    %ebx,%ecx
    1b52:	89 da                	mov    %ebx,%edx
    1b54:	89 de                	mov    %ebx,%esi
    1b56:	e8 df 02 00 00       	callq  1e3a <f16>
    1b5b:	48 98                	cltq   
    1b5d:	ba 90 1f 00 cb       	mov    $0xcb001f90,%edx
    1b62:	48 0f af c2          	imul   %rdx,%rax
    1b66:	29 c5                	sub    %eax,%ebp
    1b68:	8d bb 5c e7 ff ff    	lea    -0x18a4(%rbx),%edi
    1b6e:	e8 53 00 00 00       	callq  1bc6 <f11>
    1b73:	69 c0 f8 e3 ca ff    	imul   $0xffcae3f8,%eax,%eax
    1b79:	29 c5                	sub    %eax,%ebp
    1b7b:	8d bb 61 dc ff ff    	lea    -0x239f(%rbx),%edi
    1b81:	41 b8 5a c2 ff ff    	mov    $0xffffc25a,%r8d
    1b87:	89 d9                	mov    %ebx,%ecx
    1b89:	ba f9 16 00 c3       	mov    $0xc30016f9,%edx
    1b8e:	89 de                	mov    %ebx,%esi
    1b90:	e8 b0 f6 ff ff       	callq  1245 <f18>
    1b95:	69 c0 0b 13 c2 00    	imul   $0xc2130b,%eax,%eax
    1b9b:	01 c5                	add    %eax,%ebp
    1b9d:	8d bb 8f e1 ff ff    	lea    -0x1e71(%rbx),%edi
    1ba3:	89 d9                	mov    %ebx,%ecx
    1ba5:	ba 99 15 00 e8       	mov    $0xe8001599,%edx
    1baa:	89 de                	mov    %ebx,%esi
    1bac:	e8 aa fe ff ff       	callq  1a5b <f1>
    1bb1:	69 c0 fc f6 c2 ff    	imul   $0xffc2f6fc,%eax,%eax
    1bb7:	01 e8                	add    %ebp,%eax
    1bb9:	48 83 c4 08          	add    $0x8,%rsp
    1bbd:	5b                   	pop    %rbx
    1bbe:	5d                   	pop    %rbp
    1bbf:	c3                   	retq   
    1bc0:	b8 cb 10 00 00       	mov    $0x10cb,%eax
    1bc5:	c3                   	retq   

0000000000001bc6 <f11>:
    1bc6:	85 ff                	test   %edi,%edi
    1bc8:	0f 8e ea 00 00 00    	jle    1cb8 <f11+0xf2>
    1bce:	41 54                	push   %r12
    1bd0:	55                   	push   %rbp
    1bd1:	53                   	push   %rbx
    1bd2:	89 fb                	mov    %edi,%ebx
    1bd4:	8d bf c9 da ff ff    	lea    -0x2537(%rdi),%edi
    1bda:	41 b8 37 f8 c3 ff    	mov    $0xffc3f837,%r8d
    1be0:	89 d9                	mov    %ebx,%ecx
    1be2:	89 da                	mov    %ebx,%edx
    1be4:	be c3 ee ff ff       	mov    $0xffffeec3,%esi
    1be9:	e8 4c 02 00 00       	callq  1e3a <f16>
    1bee:	69 c0 ce c3 ff ff    	imul   $0xffffc3ce,%eax,%eax
    1bf4:	bd f2 f1 ff c2       	mov    $0xc2fff1f2,%ebp
    1bf9:	29 c5                	sub    %eax,%ebp
    1bfb:	8d bb 6a e0 ff ff    	lea    -0x1f96(%rbx),%edi
    1c01:	e8 a6 f9 ff ff       	callq  15ac <f6>
    1c06:	69 c0 c2 df ff ff    	imul   $0xffffdfc2,%eax,%eax
    1c0c:	29 c5                	sub    %eax,%ebp
    1c0e:	8d bb f5 e2 ff ff    	lea    -0x1d0b(%rbx),%edi
    1c14:	e8 83 06 00 00       	callq  229c <f4>
    1c19:	69 c0 cb 09 00 00    	imul   $0x9cb,%eax,%eax
    1c1f:	01 c5                	add    %eax,%ebp
    1c21:	8d bb 45 fe ff ff    	lea    -0x1bb(%rbx),%edi
    1c27:	e8 ee fe ff ff       	callq  1b1a <f0>
    1c2c:	69 c0 4b c3 00 00    	imul   $0xc34b,%eax,%eax
    1c32:	29 c5                	sub    %eax,%ebp
    1c34:	8d bb 39 f2 ff ff    	lea    -0xdc7(%rbx),%edi
    1c3a:	41 89 d8             	mov    %ebx,%r8d
    1c3d:	89 d9                	mov    %ebx,%ecx
    1c3f:	89 da                	mov    %ebx,%edx
    1c41:	be 66 db ff e8       	mov    $0xe8ffdb66,%esi
    1c46:	e8 bc 03 00 00       	callq  2007 <f3>
    1c4b:	69 c0 41 c3 ff ff    	imul   $0xffffc341,%eax,%eax
    1c51:	29 c5                	sub    %eax,%ebp
    1c53:	41 89 ec             	mov    %ebp,%r12d
    1c56:	8d bb a8 ea ff ff    	lea    -0x1558(%rbx),%edi
    1c5c:	e8 b8 fb ff ff       	callq  1819 <f10>
    1c61:	48 63 e8             	movslq %eax,%rbp
    1c64:	b8 82 24 00 c2       	mov    $0xc2002482,%eax
    1c69:	48 0f af e8          	imul   %rax,%rbp
    1c6d:	44 01 e5             	add    %r12d,%ebp
    1c70:	8d bb 95 ea ff ff    	lea    -0x156b(%rbx),%edi
    1c76:	89 d9                	mov    %ebx,%ecx
    1c78:	89 da                	mov    %ebx,%edx
    1c7a:	89 de                	mov    %ebx,%esi
    1c7c:	e8 fe f6 ff ff       	callq  137f <f13>
    1c81:	69 c0 c2 05 00 00    	imul   $0x5c2,%eax,%eax
    1c87:	29 c5                	sub    %eax,%ebp
    1c89:	8d bb 96 f6 ff ff    	lea    -0x96a(%rbx),%edi
    1c8f:	e8 18 f9 ff ff       	callq  15ac <f6>
    1c94:	69 c0 e8 1b 00 00    	imul   $0x1be8,%eax,%eax
    1c9a:	01 c5                	add    %eax,%ebp
    1c9c:	8d bb e2 ed ff ff    	lea    -0x121e(%rbx),%edi
    1ca2:	89 da                	mov    %ebx,%edx
    1ca4:	89 de                	mov    %ebx,%esi
    1ca6:	e8 1d 02 00 00       	callq  1ec8 <f12>
    1cab:	69 c0 26 cb 00 00    	imul   $0xcb26,%eax,%eax
    1cb1:	01 e8                	add    %ebp,%eax
    1cb3:	5b                   	pop    %rbx
    1cb4:	5d                   	pop    %rbp
    1cb5:	41 5c                	pop    %r12
    1cb7:	c3                   	retq   
    1cb8:	b8 f2 f1 ff c2       	mov    $0xc2fff1f2,%eax
    1cbd:	c3                   	retq   

0000000000001cbe <f8>:
    1cbe:	85 ff                	test   %edi,%edi
    1cc0:	0f 8e 0a 01 00 00    	jle    1dd0 <f8+0x112>
    1cc6:	41 54                	push   %r12
    1cc8:	55                   	push   %rbp
    1cc9:	53                   	push   %rbx
    1cca:	41 89 f4             	mov    %esi,%r12d
    1ccd:	89 fd                	mov    %edi,%ebp
    1ccf:	8d bf 47 de ff ff    	lea    -0x21b9(%rdi),%edi
    1cd5:	41 b8 c2 fe ff ff    	mov    $0xfffffec2,%r8d
    1cdb:	89 e9                	mov    %ebp,%ecx
    1cdd:	ba c2 07 00 00       	mov    $0x7c2,%edx
    1ce2:	be 5f 00 e8 00       	mov    $0xe8005f,%esi
    1ce7:	e8 09 f4 ff ff       	callq  10f5 <f19>
    1cec:	69 d8 e5 cb 00 00    	imul   $0xcbe5,%eax,%ebx
    1cf2:	81 c3 e0 ca 00 00    	add    $0xcae0,%ebx
    1cf8:	8d bd 0c df ff ff    	lea    -0x20f4(%rbp),%edi
    1cfe:	e8 c3 fe ff ff       	callq  1bc6 <f11>
    1d03:	69 c0 74 eb ff c2    	imul   $0xc2ffeb74,%eax,%eax
    1d09:	01 c3                	add    %eax,%ebx
    1d0b:	8d bd 1c dd ff ff    	lea    -0x22e4(%rbp),%edi
    1d11:	e8 04 fe ff ff       	callq  1b1a <f0>
    1d16:	69 c0 cb 1a 00 00    	imul   $0x1acb,%eax,%eax
    1d1c:	01 c3                	add    %eax,%ebx
    1d1e:	8d bd 46 fa ff ff    	lea    -0x5ba(%rbp),%edi
    1d24:	41 b8 c2 fd ff ff    	mov    $0xfffffdc2,%r8d
    1d2a:	44 89 e1             	mov    %r12d,%ecx
    1d2d:	89 ea                	mov    %ebp,%edx
    1d2f:	44 89 e6             	mov    %r12d,%esi
    1d32:	e8 03 01 00 00       	callq  1e3a <f16>
    1d37:	69 c0 13 ca ff ff    	imul   $0xffffca13,%eax,%eax
    1d3d:	29 c3                	sub    %eax,%ebx
    1d3f:	8d bd 7f dc ff ff    	lea    -0x2381(%rbp),%edi
    1d45:	ba 85 0a 00 cb       	mov    $0xcb000a85,%edx
    1d4a:	44 89 e6             	mov    %r12d,%esi
    1d4d:	e8 84 00 00 00       	callq  1dd6 <f14>
    1d52:	69 c0 d5 e8 ff ff    	imul   $0xffffe8d5,%eax,%eax
    1d58:	29 c3                	sub    %eax,%ebx
    1d5a:	8d bd 6c de ff ff    	lea    -0x2194(%rbp),%edi
    1d60:	89 e9                	mov    %ebp,%ecx
    1d62:	ba 41 e8 ff ff       	mov    $0xffffe841,%edx
    1d67:	be 39 e8 00 00       	mov    $0xe839,%esi
    1d6c:	e8 0e f6 ff ff       	callq  137f <f13>
    1d71:	69 c0 20 1a cb 00    	imul   $0xcb1a20,%eax,%eax
    1d77:	29 c3                	sub    %eax,%ebx
    1d79:	8d bd ac e0 ff ff    	lea    -0x1f54(%rbp),%edi
    1d7f:	e8 28 f8 ff ff       	callq  15ac <f6>
    1d84:	69 c0 df c2 ff ff    	imul   $0xffffc2df,%eax,%eax
    1d8a:	29 c3                	sub    %eax,%ebx
    1d8c:	8d 7d af             	lea    -0x51(%rbp),%edi
    1d8f:	44 89 e1             	mov    %r12d,%ecx
    1d92:	ba cb 1a 00 00       	mov    $0x1acb,%edx
    1d97:	be ca 01 00 00       	mov    $0x1ca,%esi
    1d9c:	e8 ba fc ff ff       	callq  1a5b <f1>
    1da1:	48 98                	cltq   
    1da3:	ba 80 03 00 c3       	mov    $0xc3000380,%edx
    1da8:	48 0f af c2          	imul   %rdx,%rax
    1dac:	01 c3                	add    %eax,%ebx
    1dae:	8d bd d8 f0 ff ff    	lea    -0xf28(%rbp),%edi
    1db4:	ba e8 02 00 00       	mov    $0x2e8,%edx
    1db9:	be f9 f6 e8 ff       	mov    $0xffe8f6f9,%esi
    1dbe:	e8 15 04 00 00       	callq  21d8 <f9>
    1dc3:	69 c0 1a ec e8 ff    	imul   $0xffe8ec1a,%eax,%eax
    1dc9:	01 d8                	add    %ebx,%eax
    1dcb:	5b                   	pop    %rbx
    1dcc:	5d                   	pop    %rbp
    1dcd:	41 5c                	pop    %r12
    1dcf:	c3                   	retq   
    1dd0:	b8 e0 ca 00 00       	mov    $0xcae0,%eax
    1dd5:	c3                   	retq   

0000000000001dd6 <f14>:
    1dd6:	85 ff                	test   %edi,%edi
    1dd8:	7e 5a                	jle    1e34 <f14+0x5e>
    1dda:	41 54                	push   %r12
    1ddc:	55                   	push   %rbp
    1ddd:	53                   	push   %rbx
    1dde:	41 89 d4             	mov    %edx,%r12d
    1de1:	89 fd                	mov    %edi,%ebp
    1de3:	8d bf fe f9 ff ff    	lea    -0x602(%rdi),%edi
    1de9:	89 d6                	mov    %edx,%esi
    1deb:	e8 ce fe ff ff       	callq  1cbe <f8>
    1df0:	69 d8 ca db ff ff    	imul   $0xffffdbca,%eax,%ebx
    1df6:	81 eb c8 3d 00 00    	sub    $0x3dc8,%ebx
    1dfc:	8d bd 60 e3 ff ff    	lea    -0x1ca0(%rbp),%edi
    1e02:	e8 95 04 00 00       	callq  229c <f4>
    1e07:	69 c0 27 e8 ff ff    	imul   $0xffffe827,%eax,%eax
    1e0d:	29 c3                	sub    %eax,%ebx
    1e0f:	8d bd 47 fe ff ff    	lea    -0x1b9(%rbp),%edi
    1e15:	b9 bb e8 00 00       	mov    $0xe8bb,%ecx
    1e1a:	44 89 e2             	mov    %r12d,%edx
    1e1d:	be e8 05 00 00       	mov    $0x5e8,%esi
    1e22:	e8 6a fa ff ff       	callq  1891 <f15>
    1e27:	69 c0 c3 13 00 00    	imul   $0x13c3,%eax,%eax
    1e2d:	01 d8                	add    %ebx,%eax
    1e2f:	5b                   	pop    %rbx
    1e30:	5d                   	pop    %rbp
    1e31:	41 5c                	pop    %r12
    1e33:	c3                   	retq   
    1e34:	b8 38 c2 ff ff       	mov    $0xffffc238,%eax
    1e39:	c3                   	retq   

0000000000001e3a <f16>:
    1e3a:	85 ff                	test   %edi,%edi
    1e3c:	0f 8e 80 00 00 00    	jle    1ec2 <f16+0x88>
    1e42:	41 55                	push   %r13
    1e44:	41 54                	push   %r12
    1e46:	55                   	push   %rbp
    1e47:	53                   	push   %rbx
    1e48:	48 83 ec 08          	sub    $0x8,%rsp
    1e4c:	41 89 cd             	mov    %ecx,%r13d
    1e4f:	89 fb                	mov    %edi,%ebx
    1e51:	8d bf e9 e8 ff ff    	lea    -0x1717(%rdi),%edi
    1e57:	ba c3 06 00 e8       	mov    $0xe80006c3,%edx
    1e5c:	89 de                	mov    %ebx,%esi
    1e5e:	e8 1c f5 ff ff       	callq  137f <f13>
    1e63:	69 e8 cb f8 ff ff    	imul   $0xfffff8cb,%eax,%ebp
    1e69:	44 8d a5 60 c3 00 00 	lea    0xc360(%rbp),%r12d
    1e70:	8d bb bd fa ff ff    	lea    -0x543(%rbx),%edi
    1e76:	ba bf c3 ff ff       	mov    $0xffffc3bf,%edx
    1e7b:	89 de                	mov    %ebx,%esi
    1e7d:	e8 54 ff ff ff       	callq  1dd6 <f14>
    1e82:	48 98                	cltq   
    1e84:	bd f4 10 00 ca       	mov    $0xca0010f4,%ebp
    1e89:	48 0f af c5          	imul   %rbp,%rax
    1e8d:	41 01 c4             	add    %eax,%r12d
    1e90:	8d bb f5 d9 ff ff    	lea    -0x260b(%rbx),%edi
    1e96:	41 b8 c0 ca 00 00    	mov    $0xcac0,%r8d
    1e9c:	b9 ca ef ff ff       	mov    $0xffffefca,%ecx
    1ea1:	ba 82 c2 ff ff       	mov    $0xffffc282,%edx
    1ea6:	44 89 ee             	mov    %r13d,%esi
    1ea9:	e8 c6 f5 ff ff       	callq  1474 <f17>
    1eae:	69 c0 cb 01 00 00    	imul   $0x1cb,%eax,%eax
    1eb4:	44 01 e0             	add    %r12d,%eax
    1eb7:	48 83 c4 08          	add    $0x8,%rsp
    1ebb:	5b                   	pop    %rbx
    1ebc:	5d                   	pop    %rbp
    1ebd:	41 5c                	pop    %r12
    1ebf:	41 5d                	pop    %r13
    1ec1:	c3                   	retq   
    1ec2:	b8 60 c3 00 00       	mov    $0xc360,%eax
    1ec7:	c3                   	retq   

0000000000001ec8 <f12>:
    1ec8:	85 ff                	test   %edi,%edi
    1eca:	0f 8e 31 01 00 00    	jle    2001 <f12+0x139>
    1ed0:	41 55                	push   %r13
    1ed2:	41 54                	push   %r12
    1ed4:	55                   	push   %rbp
    1ed5:	53                   	push   %rbx
    1ed6:	48 83 ec 08          	sub    $0x8,%rsp
    1eda:	41 89 d4             	mov    %edx,%r12d
    1edd:	41 89 f5             	mov    %esi,%r13d
    1ee0:	89 fd                	mov    %edi,%ebp
    1ee2:	8d bf be e3 ff ff    	lea    -0x1c42(%rdi),%edi
    1ee8:	b9 10 c2 ff ff       	mov    $0xffffc210,%ecx
    1eed:	ba c8 24 00 e8       	mov    $0xe80024c8,%edx
    1ef2:	44 89 e6             	mov    %r12d,%esi
    1ef5:	e8 85 f4 ff ff       	callq  137f <f13>
    1efa:	69 d8 3a e7 ff c2    	imul   $0xc2ffe73a,%eax,%ebx
    1f00:	81 c3 f4 c3 00 00    	add    $0xc3f4,%ebx
    1f06:	8d bd fa e3 ff ff    	lea    -0x1c06(%rbp),%edi
    1f0c:	45 89 e8             	mov    %r13d,%r8d
    1f0f:	44 89 e1             	mov    %r12d,%ecx
    1f12:	44 89 ea             	mov    %r13d,%edx
    1f15:	be c2 17 00 00       	mov    $0x17c2,%esi
    1f1a:	e8 1b ff ff ff       	callq  1e3a <f16>
    1f1f:	69 c0 af 23 ca 00    	imul   $0xca23af,%eax,%eax
    1f25:	29 c3                	sub    %eax,%ebx
    1f27:	8d bd 65 e3 ff ff    	lea    -0x1c9b(%rbp),%edi
    1f2d:	89 ea                	mov    %ebp,%edx
    1f2f:	be c3 13 00 00       	mov    $0x13c3,%esi
    1f34:	e8 9d fe ff ff       	callq  1dd6 <f14>
    1f39:	69 c0 b4 fa ca ff    	imul   $0xffcafab4,%eax,%eax
    1f3f:	01 c3                	add    %eax,%ebx
    1f41:	8d bd 24 f6 ff ff    	lea    -0x9dc(%rbp),%edi
    1f47:	e8 cd f8 ff ff       	callq  1819 <f10>
    1f4c:	69 c0 1f c2 00 00    	imul   $0xc21f,%eax,%eax
    1f52:	01 c3                	add    %eax,%ebx
    1f54:	8d bd 61 de ff ff    	lea    -0x219f(%rbp),%edi
    1f5a:	44 89 ea             	mov    %r13d,%edx
    1f5d:	44 89 ee             	mov    %r13d,%esi
    1f60:	e8 71 fe ff ff       	callq  1dd6 <f14>
    1f65:	69 c0 cf 14 e8 00    	imul   $0xe814cf,%eax,%eax
    1f6b:	01 c3                	add    %eax,%ebx
    1f6d:	8d bd cf f4 ff ff    	lea    -0xb31(%rbp),%edi
    1f73:	ba 81 e2 e8 ff       	mov    $0xffe8e281,%edx
    1f78:	be 8d e8 ff ff       	mov    $0xffffe88d,%esi
    1f7d:	e8 56 02 00 00       	callq  21d8 <f9>
    1f82:	69 c0 30 df ff c2    	imul   $0xc2ffdf30,%eax,%eax
    1f88:	29 c3                	sub    %eax,%ebx
    1f8a:	8d bd 20 ed ff ff    	lea    -0x12e0(%rbp),%edi
    1f90:	e8 84 f8 ff ff       	callq  1819 <f10>
    1f95:	69 c0 cb 1f 00 00    	imul   $0x1fcb,%eax,%eax
    1f9b:	01 c3                	add    %eax,%ebx
    1f9d:	8d bd 16 e1 ff ff    	lea    -0x1eea(%rbp),%edi
    1fa3:	41 89 e8             	mov    %ebp,%r8d
    1fa6:	44 89 e1             	mov    %r12d,%ecx
    1fa9:	44 89 e2             	mov    %r12d,%edx
    1fac:	89 ee                	mov    %ebp,%esi
    1fae:	e8 87 fe ff ff       	callq  1e3a <f16>
    1fb3:	69 c0 d1 1a cb 00    	imul   $0xcb1ad1,%eax,%eax
    1fb9:	29 c3                	sub    %eax,%ebx
    1fbb:	8d bd 1c f9 ff ff    	lea    -0x6e4(%rbp),%edi
    1fc1:	89 e9                	mov    %ebp,%ecx
    1fc3:	44 89 ea             	mov    %r13d,%edx
    1fc6:	be a8 cb ff ff       	mov    $0xffffcba8,%esi
    1fcb:	e8 c1 f8 ff ff       	callq  1891 <f15>
    1fd0:	69 c0 37 e5 ff c3    	imul   $0xc3ffe537,%eax,%eax
    1fd6:	01 c3                	add    %eax,%ebx
    1fd8:	8d bd 9d f4 ff ff    	lea    -0xb63(%rbp),%edi
    1fde:	b9 6f ee ff e8       	mov    $0xe8ffee6f,%ecx
    1fe3:	44 89 e2             	mov    %r12d,%edx
    1fe6:	44 89 e6             	mov    %r12d,%esi
    1fe9:	e8 91 f3 ff ff       	callq  137f <f13>
    1fee:	69 c0 de c3 00 00    	imul   $0xc3de,%eax,%eax
    1ff4:	01 d8                	add    %ebx,%eax
    1ff6:	48 83 c4 08          	add    $0x8,%rsp
    1ffa:	5b                   	pop    %rbx
    1ffb:	5d                   	pop    %rbp
    1ffc:	41 5c                	pop    %r12
    1ffe:	41 5d                	pop    %r13
    2000:	c3                   	retq   
    2001:	b8 f4 c3 00 00       	mov    $0xc3f4,%eax
    2006:	c3                   	retq   

0000000000002007 <f3>:
    2007:	85 ff                	test   %edi,%edi
    2009:	0f 8e fb 00 00 00    	jle    210a <f3+0x103>
    200f:	41 55                	push   %r13
    2011:	41 54                	push   %r12
    2013:	55                   	push   %rbp
    2014:	53                   	push   %rbx
    2015:	48 83 ec 08          	sub    $0x8,%rsp
    2019:	45 89 c5             	mov    %r8d,%r13d
    201c:	41 89 d4             	mov    %edx,%r12d
    201f:	89 fd                	mov    %edi,%ebp
    2021:	8d bf 76 ef ff ff    	lea    -0x108a(%rdi),%edi
    2027:	41 b8 d3 1f cb 00    	mov    $0xcb1fd3,%r8d
    202d:	89 d1                	mov    %edx,%ecx
    202f:	89 ea                	mov    %ebp,%edx
    2031:	be fa 17 00 cb       	mov    $0xcb0017fa,%esi
    2036:	e8 cc ff ff ff       	callq  2007 <f3>
    203b:	69 d8 62 c2 00 00    	imul   $0xc262,%eax,%ebx
    2041:	81 c3 a8 e8 00 00    	add    $0xe8a8,%ebx
    2047:	8d bd 86 df ff ff    	lea    -0x207a(%rbp),%edi
    204d:	41 89 e9             	mov    %ebp,%r9d
    2050:	41 b8 f8 e8 ff ff    	mov    $0xffffe8f8,%r8d
    2056:	b9 53 20 00 e8       	mov    $0xe8002053,%ecx
    205b:	44 89 ea             	mov    %r13d,%edx
    205e:	be e8 ea ff ff       	mov    $0xffffeae8,%esi
    2063:	e8 a8 00 00 00       	callq  2110 <f2>
    2068:	69 c0 90 c2 ff ff    	imul   $0xffffc290,%eax,%eax
    206e:	01 c3                	add    %eax,%ebx
    2070:	8d bd 7a f2 ff ff    	lea    -0xd86(%rbp),%edi
    2076:	89 ea                	mov    %ebp,%edx
    2078:	44 89 ee             	mov    %r13d,%esi
    207b:	e8 48 fe ff ff       	callq  1ec8 <f12>
    2080:	69 c0 1c e8 ff e8    	imul   $0xe8ffe81c,%eax,%eax
    2086:	29 c3                	sub    %eax,%ebx
    2088:	8d bd a6 ef ff ff    	lea    -0x105a(%rbp),%edi
    208e:	e8 87 fa ff ff       	callq  1b1a <f0>
    2093:	69 c0 b9 1f ca 00    	imul   $0xca1fb9,%eax,%eax
    2099:	29 c3                	sub    %eax,%ebx
    209b:	8d bd 68 f6 ff ff    	lea    -0x998(%rbp),%edi
    20a1:	41 b8 88 21 ca 00    	mov    $0xca2188,%r8d
    20a7:	44 89 e1             	mov    %r12d,%ecx
    20aa:	ba c3 23 e8 00       	mov    $0xe823c3,%edx
    20af:	be f7 0a 00 ca       	mov    $0xca000af7,%esi
    20b4:	e8 bb f3 ff ff       	callq  1474 <f17>
    20b9:	69 c0 c2 eb ff ff    	imul   $0xffffebc2,%eax,%eax
    20bf:	01 c3                	add    %eax,%ebx
    20c1:	8d bd 8c fd ff ff    	lea    -0x274(%rbp),%edi
    20c7:	e8 4d f7 ff ff       	callq  1819 <f10>
    20cc:	69 c0 5e ca ff ff    	imul   $0xffffca5e,%eax,%eax
    20d2:	29 c3                	sub    %eax,%ebx
    20d4:	8d bd 2d eb ff ff    	lea    -0x14d3(%rbp),%edi
    20da:	be d7 c3 00 00       	mov    $0xc3d7,%esi
    20df:	e8 da fb ff ff       	callq  1cbe <f8>
    20e4:	69 c0 0b e7 c3 ff    	imul   $0xffc3e70b,%eax,%eax
    20ea:	01 c3                	add    %eax,%ebx
    20ec:	8d bd a2 f4 ff ff    	lea    -0xb5e(%rbp),%edi
    20f2:	e8 a5 01 00 00       	callq  229c <f4>
    20f7:	69 c0 71 e2 ff c2    	imul   $0xc2ffe271,%eax,%eax
    20fd:	01 d8                	add    %ebx,%eax
    20ff:	48 83 c4 08          	add    $0x8,%rsp
    2103:	5b                   	pop    %rbx
    2104:	5d                   	pop    %rbp
    2105:	41 5c                	pop    %r12
    2107:	41 5d                	pop    %r13
    2109:	c3                   	retq   
    210a:	b8 a8 e8 00 00       	mov    $0xe8a8,%eax
    210f:	c3                   	retq   

0000000000002110 <f2>:
    2110:	85 ff                	test   %edi,%edi
    2112:	0f 8e ba 00 00 00    	jle    21d2 <f2+0xc2>
    2118:	41 56                	push   %r14
    211a:	41 55                	push   %r13
    211c:	41 54                	push   %r12
    211e:	55                   	push   %rbp
    211f:	53                   	push   %rbx
    2120:	41 89 cc             	mov    %ecx,%r12d
    2123:	41 89 d6             	mov    %edx,%r14d
    2126:	41 89 f5             	mov    %esi,%r13d
    2129:	89 fb                	mov    %edi,%ebx
    212b:	8d bf 89 f2 ff ff    	lea    -0xd77(%rdi),%edi
    2131:	b9 bf e2 ff e8       	mov    $0xe8ffe2bf,%ecx
    2136:	89 f2                	mov    %esi,%edx
    2138:	44 89 e6             	mov    %r12d,%esi
    213b:	e8 1b f9 ff ff       	callq  1a5b <f1>
    2140:	69 c0 d0 ea ca ff    	imul   $0xffcaead0,%eax,%eax
    2146:	bd 4d e8 00 00       	mov    $0xe84d,%ebp
    214b:	29 c5                	sub    %eax,%ebp
    214d:	8d bb fc ee ff ff    	lea    -0x1104(%rbx),%edi
    2153:	45 89 f0             	mov    %r14d,%r8d
    2156:	44 89 e9             	mov    %r13d,%ecx
    2159:	89 da                	mov    %ebx,%edx
    215b:	44 89 e6             	mov    %r12d,%esi
    215e:	e8 d7 fc ff ff       	callq  1e3a <f16>
    2163:	69 c0 f4 e8 00 00    	imul   $0xe8f4,%eax,%eax
    2169:	01 c5                	add    %eax,%ebp
    216b:	8d bb 54 fa ff ff    	lea    -0x5ac(%rbx),%edi
    2171:	45 89 f0             	mov    %r14d,%r8d
    2174:	44 89 f1             	mov    %r14d,%ecx
    2177:	89 da                	mov    %ebx,%edx
    2179:	be c2 e3 ff ff       	mov    $0xffffe3c2,%esi
    217e:	e8 0b f8 ff ff       	callq  198e <f7>
    2183:	48 98                	cltq   
    2185:	ba a4 24 00 e8       	mov    $0xe80024a4,%edx
    218a:	48 0f af c2          	imul   %rdx,%rax
    218e:	29 c5                	sub    %eax,%ebp
    2190:	8d bb d1 fa ff ff    	lea    -0x52f(%rbx),%edi
    2196:	44 89 e1             	mov    %r12d,%ecx
    2199:	89 da                	mov    %ebx,%edx
    219b:	44 89 e6             	mov    %r12d,%esi
    219e:	e8 ee f6 ff ff       	callq  1891 <f15>
    21a3:	69 c0 c2 e8 ff ff    	imul   $0xffffe8c2,%eax,%eax
    21a9:	01 c5                	add    %eax,%ebp
    21ab:	8d bb e5 f6 ff ff    	lea    -0x91b(%rbx),%edi
    21b1:	45 89 e0             	mov    %r12d,%r8d
    21b4:	44 89 e1             	mov    %r12d,%ecx
    21b7:	89 da                	mov    %ebx,%edx
    21b9:	44 89 ee             	mov    %r13d,%esi
    21bc:	e8 46 fe ff ff       	callq  2007 <f3>
    21c1:	69 c0 d4 cb 00 00    	imul   $0xcbd4,%eax,%eax
    21c7:	01 e8                	add    %ebp,%eax
    21c9:	5b                   	pop    %rbx
    21ca:	5d                   	pop    %rbp
    21cb:	41 5c                	pop    %r12
    21cd:	41 5d                	pop    %r13
    21cf:	41 5e                	pop    %r14
    21d1:	c3                   	retq   
    21d2:	b8 4d e8 00 00       	mov    $0xe84d,%eax
    21d7:	c3                   	retq   

00000000000021d8 <f9>:
    21d8:	85 ff                	test   %edi,%edi
    21da:	0f 8e b6 00 00 00    	jle    2296 <f9+0xbe>
    21e0:	41 55                	push   %r13
    21e2:	41 54                	push   %r12
    21e4:	55                   	push   %rbp
    21e5:	53                   	push   %rbx
    21e6:	48 83 ec 08          	sub    $0x8,%rsp
    21ea:	41 89 d5             	mov    %edx,%r13d
    21ed:	41 89 f4             	mov    %esi,%r12d
    21f0:	89 fd                	mov    %edi,%ebp
    21f2:	8d bf d3 eb ff ff    	lea    -0x142d(%rdi),%edi
    21f8:	41 b8 55 f5 ff e8    	mov    $0xe8fff555,%r8d
    21fe:	89 d1                	mov    %edx,%ecx
    2200:	89 f2                	mov    %esi,%edx
    2202:	be 32 ea c2 ff       	mov    $0xffc2ea32,%esi
    2207:	e8 82 f7 ff ff       	callq  198e <f7>
    220c:	69 c0 c2 dc ff ff    	imul   $0xffffdcc2,%eax,%eax
    2212:	bb 79 06 00 e8       	mov    $0xe8000679,%ebx
    2217:	29 c3                	sub    %eax,%ebx
    2219:	8d bd 34 d9 ff ff    	lea    -0x26cc(%rbp),%edi
    221f:	45 89 e0             	mov    %r12d,%r8d
    2222:	b9 a2 09 c3 00       	mov    $0xc309a2,%ecx
    2227:	44 89 ea             	mov    %r13d,%edx
    222a:	be cb 06 00 00       	mov    $0x6cb,%esi
    222f:	e8 06 fc ff ff       	callq  1e3a <f16>
    2234:	69 c0 cb 00 00 00    	imul   $0xcb,%eax,%eax
    223a:	01 c3                	add    %eax,%ebx
    223c:	8d bd 09 db ff ff    	lea    -0x24f7(%rbp),%edi
    2242:	41 b9 c7 22 00 c3    	mov    $0xc30022c7,%r9d
    2248:	41 b8 f3 c3 00 00    	mov    $0xc3f3,%r8d
    224e:	44 89 e1             	mov    %r12d,%ecx
    2251:	89 ea                	mov    %ebp,%edx
    2253:	be c3 05 00 00       	mov    $0x5c3,%esi
    2258:	e8 b3 fe ff ff       	callq  2110 <f2>
    225d:	69 c0 cb 19 00 00    	imul   $0x19cb,%eax,%eax
    2263:	01 c3                	add    %eax,%ebx
    2265:	8d bd 7b e0 ff ff    	lea    -0x1f85(%rbp),%edi
    226b:	e8 a9 f5 ff ff       	callq  1819 <f10>
    2270:	69 c0 08 f0 c2 ff    	imul   $0xffc2f008,%eax,%eax
    2276:	01 c3                	add    %eax,%ebx
    2278:	8d bd de fb ff ff    	lea    -0x422(%rbp),%edi
    227e:	e8 96 f5 ff ff       	callq  1819 <f10>
    2283:	69 c0 d9 f0 ff c3    	imul   $0xc3fff0d9,%eax,%eax
    2289:	01 d8                	add    %ebx,%eax
    228b:	48 83 c4 08          	add    $0x8,%rsp
    228f:	5b                   	pop    %rbx
    2290:	5d                   	pop    %rbp
    2291:	41 5c                	pop    %r12
    2293:	41 5d                	pop    %r13
    2295:	c3                   	retq   
    2296:	b8 79 06 00 e8       	mov    $0xe8000679,%eax
    229b:	c3                   	retq   

000000000000229c <f4>:
    229c:	85 ff                	test   %edi,%edi
    229e:	7e 3d                	jle    22dd <f4+0x41>
    22a0:	55                   	push   %rbp
    22a1:	53                   	push   %rbx
    22a2:	48 83 ec 08          	sub    $0x8,%rsp
    22a6:	89 fb                	mov    %edi,%ebx
    22a8:	8d bf 84 e2 ff ff    	lea    -0x1d7c(%rdi),%edi
    22ae:	89 da                	mov    %ebx,%edx
    22b0:	89 de                	mov    %ebx,%esi
    22b2:	e8 21 ff ff ff       	callq  21d8 <f9>
    22b7:	69 c0 31 f7 ff e8    	imul   $0xe8fff731,%eax,%eax
    22bd:	8d a8 c2 e1 ff ff    	lea    -0x1e3e(%rax),%ebp
    22c3:	8d bb 89 fb ff ff    	lea    -0x477(%rbx),%edi
    22c9:	e8 e7 f3 ff ff       	callq  16b5 <f5>
    22ce:	69 c0 ca 0f 00 00    	imul   $0xfca,%eax,%eax
    22d4:	01 e8                	add    %ebp,%eax
    22d6:	48 83 c4 08          	add    $0x8,%rsp
    22da:	5b                   	pop    %rbx
    22db:	5d                   	pop    %rbp
    22dc:	c3                   	retq   
    22dd:	b8 c2 e1 ff ff       	mov    $0xffffe1c2,%eax
    22e2:	c3                   	retq   

00000000000022e3 <testFn>:
    22e3:	48 83 ec 08          	sub    $0x8,%rsp
    22e7:	bf c1 03 c2 00       	mov    $0xc203c1,%edi
    22ec:	e8 29 f8 ff ff       	callq  1b1a <f0>
    22f1:	48 83 c4 08          	add    $0x8,%rsp
    22f5:	c3                   	retq   

Disassembly of section .fini:

00000000000022f8 <_fini>:
    22f8:	48 83 ec 08          	sub    $0x8,%rsp
    22fc:	48 83 c4 08          	add    $0x8,%rsp
    2300:	c3                   	retq   
