Script started on 2021-10-07 10:33:01-04:00 [TERM="xterm-256color" TTY="/dev/pts/2" COLUMNS="83" LINES="39"]
jgordo39@remote07:~/i220a/submit/lab5$ ls
exercises  lab5.LOG
jgordo39@remote07:~/i220a/submit/lab5$ cd exercises
jgordo39@remote07:~/i220a/submit/lab5/exercises$ ls
2  hello.c  identify  Makefile
jgordo39@remote07:~/i220a/submit/lab5/exercises$ size j[K[K[K[K[K[Kmake
cc -g -Wall  -std=c18    hello.c   -o hello
cc -g -Wall  -std=c18 -S hello.c
jgordo39@remote07:~/i220a/submit/lab5/exercises$ ls
2  hello  hello.c  hello.s  identify  Makefile
jgordo39@remote07:~/i220a/submit/lab5/exercises$ size hello
   text	   data	    bss	    dec	    hex	filename
   1874	    592	     48	   2514	    9d2	hello
jgordo39@remote07:~/i220a/submit/lab5/exercises$ size -A hello
hello  :
section              size    addr
.interp                28     680
.note.ABI-tag          32     708
.note.gnu.build-id     36     740
.gnu.hash              48     776
.dynsym               240     824
.dynstr               152    1064
.gnu.version           20    1216
.gnu.version_r         32    1240
.rela.dyn             240    1272
.rela.plt              48    1512
.init                  23    4096
.plt                   48    4128
.plt.got                8    4176
.text                 513    4192
.fini                   9    4708
.rodata                33    8192
.eh_frame_hdr          68    8228
.eh_frame             296    8296
.init_array             8   15848
.fini_array             8   15856
.dynamic              480   15864
.got                   40   16344
.got.plt               40   16384
.data                  16   16424
.bss                   48   16448
.comment               28       0
.debug_aranges         48       0
.debug_info           860       0
.debug_abbrev         287       0
.debug_line           308       0
.debug_str            598       0
Total                4643


jgordo39@remote07:~/i220a/submit/lab5/exercises$ objdump -d hello > hello.objdump
jgordo39@remote07:~/i220a/submit/lab5/exercises$ ls
2  hello  hello.c  hello.objdump  hello.s  identify  Makefile
jgordo39@remote07:~/i220a/submit/lab5/exercises$ emavs[K[Kcs hello.onjdump
[?1049h[22;0;0t[?12;25h[?1h=[H[2J[39d[K[?1l>[?12l[?25h[?1049l[23;0;0t[39;49m[?1049h[22;0;0t[?12;25h[?1h=[H[2J[38d[?25l[30m[47m-UUU:----F1  [39;49m[1m[30m[47m*scratch*   [0m[39;49m[30m[47m   All L1     (Fundamental) ------------------------------[39;49m
[A[2d[?12l[?25h[?12;25h[39d[?25lLoading /etc/emacs/site-start.d/00debian.el (source)...done[K[H
[?12l[?25h[?12;25h[39;33H[?25l50a2ps.el (source)...[K[H
[?12l[?25h[?12;25h[39;54H[?25ldone[H
[?12l[?25h[?12;25h[39;36H[?25lsymptote.el (source)...[H
[?12l[?25h[?12;25h[39;59H[?25ldone[H
[?12l[?25h[?12;25h[39;36H[?25lutoconf.el (source)...[K[H
[?12l[?25h[?12;25h[39;58H[?25ldone[H
[?12l[?25h[?12;25h[39;35H[?25lcmake-data.el (source)...[K[H
[?12l[?25h[?12;25h[39;60H[?25ldone[H
[?12l[?25h[?12;25h[39;35H[?25ldevhelp.el (source)...[K[H
[?12l[?25h[?12;25h[39;57H[?25ldone[H
[?12l[?25h[?12;25h[39;36H[?25lictionaries-common.el (source)...[H
[?12l[?25h[?12;25h[39;9H[?25ldebian-ispell...[K[H
[?12l[?25h[?12;25h[39;9H[?25l/var/cache/dictionaries-common/emacsen-ispell-default.el (source)...[H
[?12l[?25h[?12;25h[39;77H[?25ldone[H
[?12l[?25h[?12;25h[39;9H[?25ldebian-ispell...done[K[H
[?12l[?25h[?12;25h[39;9H[?25l/var/cache/dictionaries-common/emacsen-ispell-dicts.el (source)...[H
[?12l[?25h[?12;25h[39;75H[?25ldone[H
[?12l[?25h[?12;25h[39;10H[?25letc/emacs/site-start.d/50dictionaries-common[6P[H
[?12l[?25h[?12;25h[39;35H[?25lerlang-mode.el (source)...[K[H
[?12l[?25h[?12;25h[39;61H[?25ldone[H
[?12l[?25h[?12;25h[39;35H[?25lhaskell-mode.el (source)...[K[H
[?12l[?25h[?12;25h[39d[?25ll (source)...[K[H[7mFile Edit Options Buffers Tools Help                                               [0m[39;49m[27m
[A
[K
[K
[K
[K
[K
[K
[K
[K
[K
[K
[K
[K
[K
[K
[K
[K
[K
[K
[K
[K
[K
[K
[K
[K
[K
[K
[K
[K
[K
[K
[K
[K
[K
[K
[K
[30m[47m-UUU:----F1  [39;49m[1m[30m[47m*scratch*   [0m[39;49m[30m[47m   All L1     (Fundamental) ------------------------------[39;49m
[A
Loading /usr/share/emacs/site-lisp/elpa/haskell-mode-16.1/haskell-mode-autoloads.e\
[A[2d[?12l[?25h[?12;25h[39;14H[?25ldone[H
[?12l[?25h[?12;25h[39d[K[38;10H[?25letc/emacs/site-start.d/50haskell-mode.el (source)...done[K[H
[?12l[?25h[?12;25h[38;35H[?25llatex-cjk-common.el (source)...[H
[?12l[?25h[?12;25h[38;10H[?25lusr/share/emacs/site-lisp/latex-cjk-commo[9@n/cjk-enc[H
[?12l[?25h[?12;25h[38;75H[?25ldone[H
[?12l[?25h[?12;25h[38;10H[?25letc/emacs/site-start.d/50latex-cjk-common[9P[H
[?12l[?25h[?12;25h[38;45H[?25lthai.el (source)...[K[H
[?12l[?25h[?12;25h[38;64H[?25ldone[H
[?12l[?25h[?12;25h[38;35H[?25lpsvn.el (source)...[K[H
[?12l[?25h[?12;25h[38;54H[?25ldone[H
[?12l[?25h[?12;25h[38;36H[?25lython-docutils.el (source)...[H
[?12l[?25h[?12;25h[38;65H[?25ldone[H
[?12l[?25h[?12;25h[38;35H[?25ltcsh.el (source)...[K[H
[?12l[?25h[?12;25h[38;54H[?25ldone[H
[?12l[?25h[?12;25h[38;36H[?25lexlive-lang-english.el (source)...[H
[?12l[?25h[?12;25h[38;70H[?25ldone[H
[?12l[?25h[?12;25h[>0c[?2004h[?1004h[39d[?25lFor information about GNU Emacs and the GNU system, type C-h C-a.[K[H[7mFile Edit Options Buffers Tools Lisp-Interaction Help                              [0m[39;49m[27m
[A
[K
[K
[K
[K
[K
[K
[K
[K
[K
[K
[K
[K
[K
[K
[K
[K
[K
[K
[K
[K
[K
[K
[K
[K
[K
[K
[K
[K
[K
[K
[K
[K
[K
[K
[K
[K
[30m[48;5;250m-UUU:----F1  [39;49m[1m[30m[48;5;250m*scratch*   [0m[39;49m[30m[48;5;250m   All L1     (Lisp Interaction ElDoc) 10:34AM 0.15 ------[39;49m
[A[2d[?12l[?25h[?12;25h[39d[?25l(New file)[K[H
[?12l[?25h[?12;25h[39d[?25l(New file)[K[H[7mFile Edit Options Buffers Tools Help                                               [0m[39;49m[27m
[A
[K
[K
[K
[K
[K
[K
[K
[K
[K
[K
[K
[K
[K
[K
[K
[K
[K
[K
[K
[K
[K
[K
[K
[K
[K
[K
[K
[K
[K
[K
[K
[K
[K
[K
[K
[K
[30m[48;5;250m-UUU:----F1  [39;49m[1m[30m[48;5;250mhello.onjdump[0m[39;49m[30m[48;5;250m   All L1     (Fundamental) 10:34AM 0.15 ----------------[39;49m
[A[2d[?12l[?25h[?12;25h[39d[K[2d[39d[K[?1004l[?2004l[?1l>[?12l[?25h[?1049l[23;0;0t[39;49m
[1]+  Stopped                 emacs hello.onjdump
jgordo39@remote07:~/i220a/submit/lab5/exercises$ fg
emacs hello.onjdump
[?1049h[22;0;0t[?12;25h[?1h=[?1004h[?2004h[39;1H[K[H[?25l[7mFile Edit Options Buffers Tools Help                                               [0m[39;49m[27m
[A
[K
[K
[K
[K
[K
[K
[K
[K
[K
[K
[K
[K
[K
[K
[K
[K
[K
[K
[K
[K
[K
[K
[K
[K
[K
[K
[K
[K
[K
[K
[K
[K
[K
[K
[K
[K
[30m[48;5;250m-UUU:----F1  [39;49m[1m[30m[48;5;250mhello.onjdump[0m[39;49m[30m[48;5;250m   All L1     (Fundamental) 10:34AM 0.15 ----------------[39;49m
[A[2d[?12l[?25h[?12;25h[39d[K[?1004l[?2004l[?1l>[?12l[?25h[?1049l[23;0;0t[39;49mjgordo39@remote07:~/i220a/submit/lab5/exercises$ fgemacs hello.onjdump[1Pjdumpbjdump
[?1049h[22;0;0t[?12;25h[?1h=[H[2J[39d[K[?1l>[?12l[?25h[?1049l[23;0;0t[39;49m[?1049h[22;0;0t[?12;25h[?1h=[H[2J[38d[?25l[30m[47m-UUU:----F1  [39;49m[1m[30m[47m*scratch*   [0m[39;49m[30m[47m   All L1     (Fundamental) ------------------------------[39;49m
[A[2d[?12l[?25h[?12;25h[39d[?25lLoading /etc/emacs/site-start.d/00debian.el (source)...done[K[H
[?12l[?25h[?12;25h[39;33H[?25l50a2ps.el (source)...[K[H
[?12l[?25h[?12;25h[39;54H[?25ldone[H
[?12l[?25h[?12;25h[39;36H[?25lsymptote.el (source)...[H
[?12l[?25h[?12;25h[39;59H[?25ldone[H
[?12l[?25h[?12;25h[39;36H[?25lutoconf.el (source)...[K[H
[?12l[?25h[?12;25h[39;58H[?25ldone[H
[?12l[?25h[?12;25h[39;35H[?25lcmake-data.el (source)...[K[H
[?12l[?25h[?12;25h[39;60H[?25ldone[H
[?12l[?25h[?12;25h[39;35H[?25ldevhelp.el (source)...[K[H
[?12l[?25h[?12;25h[39;57H[?25ldone[H
[?12l[?25h[?12;25h[39;36H[?25lictionaries-common.el (source)...[H
[?12l[?25h[?12;25h[39;9H[?25ldebian-ispell...[K[H
[?12l[?25h[?12;25h[39;9H[?25l/var/cache/dictionaries-common/emacsen-ispell-default.el (source)...[H
[?12l[?25h[?12;25h[39;77H[?25ldone[H
[?12l[?25h[?12;25h[39;9H[?25ldebian-ispell...done[K[H
[?12l[?25h[?12;25h[39;9H[?25l/var/cache/dictionaries-common/emacsen-ispell-dicts.el (source)...[H
[?12l[?25h[?12;25h[39;75H[?25ldone[H
[?12l[?25h[?12;25h[39;10H[?25letc/emacs/site-start.d/50dictionaries-common[6P[H
[?12l[?25h[?12;25h[39;35H[?25lerlang-mode.el (source)...[K[H
[?12l[?25h[?12;25h[39;61H[?25ldone[H
[?12l[?25h[?12;25h[39;35H[?25lhaskell-mode.el (source)...[K[H
[?12l[?25h[?12;25h[39d[?25ll (source)...[K[H[7mFile Edit Options Buffers Tools Help                                               [0m[39;49m[27m
[A
[K
[K
[K
[K
[K
[K
[K
[K
[K
[K
[K
[K
[K
[K
[K
[K
[K
[K
[K
[K
[K
[K
[K
[K
[K
[K
[K
[K
[K
[K
[K
[K
[K
[K
[K
[30m[47m-UUU:----F1  [39;49m[1m[30m[47m*scratch*   [0m[39;49m[30m[47m   All L1     (Fundamental) ------------------------------[39;49m
[A
Loading /usr/share/emacs/site-lisp/elpa/haskell-mode-16.1/haskell-mode-autoloads.e\
[A[2d[?12l[?25h[?12;25h[39;14H[?25ldone[H
[?12l[?25h[?12;25h[39d[K[38;10H[?25letc/emacs/site-start.d/50haskell-mode.el (source)...done[K[H
[?12l[?25h[?12;25h[38;35H[?25llatex-cjk-common.el (source)...[H
[?12l[?25h[?12;25h[38;10H[?25lusr/share/emacs/site-lisp/latex-cjk-commo[9@n/cjk-enc[H
[?12l[?25h[?12;25h[38;75H[?25ldone[H
[?12l[?25h[?12;25h[38;10H[?25letc/emacs/site-start.d/50latex-cjk-common[9P[H
[?12l[?25h[?12;25h[38;45H[?25lthai.el (source)...[K[H
[?12l[?25h[?12;25h[38;64H[?25ldone[H
[?12l[?25h[?12;25h[38;35H[?25lpsvn.el (source)...[K[H
[?12l[?25h[?12;25h[38;54H[?25ldone[H
[?12l[?25h[?12;25h[38;36H[?25lython-docutils.el (source)...[H
[?12l[?25h[?12;25h[38;65H[?25ldone[H
[?12l[?25h[?12;25h[38;35H[?25ltcsh.el (source)...[K[H
[?12l[?25h[?12;25h[38;54H[?25ldone[H
[?12l[?25h[?12;25h[38;36H[?25lexlive-lang-english.el (source)...[H
[?12l[?25h[?12;25h[38;70H[?25ldone[H
[?12l[?25h[?12;25h[>0c[?2004h[?1004h[39d[?25lFor information about GNU Emacs and the GNU system, type C-h C-a.[K[H[7mFile Edit Options Buffers Tools Lisp-Interaction Help                              [0m[39;49m[27m
[A
[K
[K
[K
[K
[K
[K
[K
[K
[K
[K
[K
[K
[K
[K
[K
[K
[K
[K
[K
[K
[K
[K
[K
[K
[K
[K
[K
[K
[K
[K
[K
[K
[K
[K
[K
[K
[30m[48;5;250m-UUU:----F1  [39;49m[1m[30m[48;5;250m*scratch*   [0m[39;49m[30m[48;5;250m   All L1     (Lisp Interaction ElDoc) 10:34AM 0.12 ------[39;49m
[A[2d[?12l[?25h[?12;25h[39d[?25lFor information about GNU Emacs and the GNU system, type C-h C-a.[K[H[7mFile Edit Options Buffers Tools Help                                               [0m[39;49m[27m
[A
[K
hello:     file format elf64-x86-64[K
[K
[K
Disassembly of section .init:[K
[K
0000000000001000 <_init>:[K
    1000:       48 83 ec 08             sub    $0x8,%rsp[K
    1004:       48 8b 05 dd 2f 00 00    mov    0x2fdd(%rip),%rax        # 3fe8 <__\
[A
gmon_start__>[K
    100b:       48 85 c0                test   %rax,%rax[K
    100e:       74 02                   je     1012 <_init+0x12>[K
    1010:       ff d0                   callq  *%rax[K
    1012:       48 83 c4 08             add    $0x8,%rsp[K
    1016:       c3                      retq[K
[K
Disassembly of section .plt:[K
[K
0000000000001020 <.plt>:[K
    1020:       ff 35 e2 2f 00 00       pushq  0x2fe2(%rip)        # 4008 <_GLOBAL\
[A
_OFFSET_TABLE_+0x8>[K
    1026:       ff 25 e4 2f 00 00       jmpq   *0x2fe4(%rip)        # 4010 <_GLOBA\
[A
L_OFFSET_TABLE_+0x10>[K
    102c:       0f 1f 40 00             nopl   0x0(%rax)[K
[K
0000000000001030 <fprintf@plt>:[K
    1030:       ff 25 e2 2f 00 00       jmpq   *0x2fe2(%rip)        # 4018 <fprint\
[A
f@GLIBC_2.2.5>[K
    1036:       68 00 00 00 00          pushq  $0x0[K
    103b:       e9 e0 ff ff ff          jmpq   1020 <.plt>[K
[K
0000000000001040 <exit@plt>:[K
    1040:       ff 25 da 2f 00 00       jmpq   *0x2fda(%rip)        # 4020 <exit@G\
[A
LIBC_2.2.5>[K
    1046:       68 01 00 00 00          pushq  $0x1[K
    104b:       e9 d0 ff ff ff          jmpq   1020 <.plt>[K
[30m[48;5;250m-UU-:----F1  [39;49m[1m[30m[48;5;250mhello.objdump[0m[39;49m[30m[48;5;250m   Top L1     (Fundamental) 10:34AM 0.12 ----------------[39;49m
[A[2d[?12l[?25h[?12;25h[39d[K[2d[38;59H[?25l[30m[48;5;250m5[39;49m[H
[?12l[?25h[?12;25h[38;35H[?25l[30m[48;5;250m5[39;49m[6;1H[?12l[?25h[?12;25h[38;35H[?25l[30m[48;5;250m9[39;49m[10;1H[?12l[?25h[?12;25h[38;35H[?25l[30m[48;5;250m12[39;49m[14;1H[?12l[?25h[?12;25h[38;36H[?25l[30m[48;5;250m6[39;49m[18;1H[?12l[?25h[?12;25h[38;36H[?25l[30m[48;5;250m9[39;49m[22;1H[?12l[?25h[?12;25h[38;35H[?25l[30m[48;5;250m22[39;49m[26;1H[?12l[?25h[?12;25h[38;36H[?25l[30m[48;5;250m5[39;49m[30;1H[?12l[?25h[?12;25h[38;36H[?25l[30m[48;5;250m9[39;49m[34;1H[?12l[?25h[?12;25h[1;37r[2;1H[18M[1;39r[20;1H[K
[?25lDisassembly of section .plt.got:[K
[K
0000000000001050 <__cxa_finalize@plt>:[K
    1050:       ff 25 a2 2f 00 00       jmpq   *0x2fa2(%rip)        # 3ff8 <__cxa_\
[A
finalize@GLIBC_2.2.5>[K
    1056:       66 90                   xchg   %ax,%ax[K
[K
Disassembly of section .text:[K
[K
0000000000001060 <_start>:[K
    1060:       31 ed                   xor    %ebp,%ebp[K
    1062:       49 89 d1                mov    %rdx,%r9[K
    1065:       5e                      pop    %rsi[K
    1066:       48 89 e2                mov    %rsp,%rdx[K
    1069:       48 83 e4 f0             and    $0xfffffffffffffff0,%rsp[K
    106d:       50                      push   %rax[K
    106e:       54                      push   %rsp[K[38;30H[30m[48;5;250m 6% L32[39;49m[20;1H[?12l[?25h[?12;25h[38;36H[?25l[30m[48;5;250m6[39;49m[24;1H[?12l[?25h[?12;25h[38;36H[?25l[30m[48;5;250m9[39;49m[28;1H[?12l[?25h[?12;25h[38;35H[?25l[30m[48;5;250m43[39;49m[32;1H[?12l[?25h[?12;25h[38;36H[?25l[30m[48;5;250m7[39;49m[36;1H[?12l[?25h[?12;25h[1;37r[3;1H[20M[1;39r[2;1H[K[18d[?25l    106f:       4c 8d 05 ea 01 00 00    lea    0x1ea(%rip),%r8        # 1260 <__li\
[A
bc_csu_fini>[K
    1076:       48 8d 0d 83 01 00 00    lea    0x183(%rip),%rcx        # 1200 <__l\
[A
ibc_csu_init>[K
    107d:       48 8d 3d f0 00 00 00    lea    0xf0(%rip),%rdi        # 1174 <main\
[A
>[K
    1084:       ff 15 56 2f 00 00       callq  *0x2f56(%rip)        # 3fe0 <__libc\
[A
_start_main@GLIBC_2.2.5>[K
    108a:       f4                      hlt[K
    108b:       0f 1f 44 00 00          nopl   0x0(%rax,%rax,1)[K
[K
0000000000001090 <deregister_tm_clones>:[K
    1090:       48 8d 3d a1 2f 00 00    lea    0x2fa1(%rip),%rdi        # 4038 <__\
[A
TMC_END__>[K
    1097:       48 8d 05 9a 2f 00 00    lea    0x2f9a(%rip),%rax        # 4038 <__\
[A
TMC_END__>[K
    109e:       48 39 f8                cmp    %rdi,%rax[K
    10a1:       74 15                   je     10b8 <deregister_tm_clones+0x28>[K
    10a3:       48 8b 05 2e 2f 00 00    mov    0x2f2e(%rip),%rax        # 3fd8 <_I\
[A
TM_deregisterTMCloneTable>[K[38;30H[30m[48;5;250m13% L50[39;49m[20;1H[?12l[?25h[?12;25h[38;36H[?25l[30m[48;5;250m2[39;49m[24;1H[?12l[?25h[?12;25h[38;36H[?25l[30m[48;5;250m5[39;49m[28;1H[?12l[?25h[?12;25h[38;36H[?25l[30m[48;5;250m8[39;49m[32;1H[?12l[?25h[?12;25h[38;35H[?25l[30m[48;5;250m61[39;49m[36;1H[?12l[?25h[?12;25h[1;37r[2;1H[20M[1;39r[18;1H[?25l    10aa:       48 85 c0                test   %rax,%rax[K
    10ad:       74 09                   je     10b8 <deregister_tm_clones+0x28>[K
    10af:       ff e0                   jmpq   *%rax[K
    10b1:       0f 1f 80 00 00 00 00    nopl   0x0(%rax)[K
    10b8:       c3                      retq[K
    10b9:       0f 1f 80 00 00 00 00    nopl   0x0(%rax)[K
[K
00000000000010c0 <register_tm_clones>:[K
    10c0:       48 8d 3d 71 2f 00 00    lea    0x2f71(%rip),%rdi        # 4038 <__\
[A
TMC_END__>[K
    10c7:       48 8d 35 6a 2f 00 00    lea    0x2f6a(%rip),%rsi        # 4038 <__\
[A
TMC_END__>[K
    10ce:       48 29 fe                sub    %rdi,%rsi[K
    10d1:       48 c1 fe 03             sar    $0x3,%rsi[K
    10d5:       48 89 f0                mov    %rsi,%rax[K
    10d8:       48 c1 e8 3f             shr    $0x3f,%rax[K
    10dc:       48 01 c6                add    %rax,%rsi[K
    10df:       48 d1 fe                sar    %rsi[K
    10e2:       74 14                   je     10f8 <register_tm_clones+0x38>[K
    10e4:       48 8b 05 05 2f 00 00    mov    0x2f05(%rip),%rax        # 3ff0 <_I\
[A[38;30H[30m[48;5;250m21% L64[39;49m[20;1H[?12l[?25h[?12;25h[38;36H[?25l[30m[48;5;250m8[39;49m[24;1H[?12l[?25h[?12;25h[38;35H[?25l[30m[48;5;250m71[39;49m[28;1H[?12l[?25h[?12;25h[38;36H[?25l[30m[48;5;250m4[39;49m[32;1H[?12l[?25h[?12;25h[38;36H[?25l[30m[48;5;250m8[39;49m[36;1H[?12l[?25h[?12;25h[1;37r[2;1H[20M[1;39r[18;1H[?25lTM_registerTMCloneTable>[K
    10eb:       48 85 c0                test   %rax,%rax[K
    10ee:       74 08                   je     10f8 <register_tm_clones+0x38>[K
    10f0:       ff e0                   jmpq   *%rax[K
    10f2:       66 0f 1f 44 00 00       nopw   0x0(%rax,%rax,1)[K
    10f8:       c3                      retq[K
    10f9:       0f 1f 80 00 00 00 00    nopl   0x0(%rax)[K
[K
0000000000001100 <__do_global_dtors_aux>:[K
    1100:       80 3d 61 2f 00 00 00    cmpb   $0x0,0x2f61(%rip)        # 4068 <co\
[A
mpleted.7325>[K
    1107:       75 2f                   jne    1138 <__do_global_dtors_aux+0x38>[K
    1109:       55                      push   %rbp[K
    110a:       48 83 3d e6 2e 00 00    cmpq   $0x0,0x2ee6(%rip)        # 3ff8 <__\
[A
cxa_finalize@GLIBC_2.2.5>[K
    1111:       00[K
    1112:       48 89 e5                mov    %rsp,%rbp[K
    1115:       74 0c                   je     1123 <__do_global_dtors_aux+0x23>[K
    1117:       48 8b 3d 12 2f 00 00    mov    0x2f12(%rip),%rdi        # 4030 <__\
[A
dso_handle>[K[38;30H[30m[48;5;250m30% L81[39;49m[20;1H[?12l[?25h[?12;25h[38;36H[?25l[30m[48;5;250m5[39;49m[24;1H[?12l[?25h[?12;25h[38;36H[?25l[30m[48;5;250m8[39;49m[28;1H[?12l[?25h[?12;25h[38;35H[?25l[30m[48;5;250m91[39;49m[32;1H[?12l[?25h[?12;25h[38;36H[?25l[30m[48;5;250m5[39;49m[36;1H[?12l[?25h[?12;25h
[1;37r[2;1H[18M[1;39r[20;1H[?25l    111e:       e8 2d ff ff ff          callq  1050 <__cxa_finalize@plt>[K
    1123:       e8 68 ff ff ff          callq  1090 <deregister_tm_clones>[K
    1128:       c6 05 39 2f 00 00 01    movb   $0x1,0x2f39(%rip)        # 4068 <co\
[A
mpleted.7325>[K
    112f:       5d                      pop    %rbp[K
    1130:       c3                      retq[K
    1131:       0f 1f 80 00 00 00 00    nopl   0x0(%rax)[K
    1138:       c3                      retq[K
    1139:       0f 1f 80 00 00 00 00    nopl   0x0(%rax)[K
[K
0000000000001140 <frame_dummy>:[K
    1140:       e9 7b ff ff ff          jmpq   10c0 <register_tm_clones>[K
[K
0000000000001145 <hello>:[K
    1145:       55                      push   %rbp[K
    1146:       48 89 e5                mov    %rsp,%rbp[K
    1149:       48 83 ec 10             sub    $0x10,%rsp[K
    114d:       48 89 7d f8             mov    %rdi,-0x8(%rbp)[K[38;31H[30m[48;5;250m8% L96[39;49m[20;1H[?12l[?25h[?12;25h[38;36H[?25l[30m[48;5;250m7[39;49m[21;1H[?12l[?25h[?12;25h[38;36H[?25l[30m[48;5;250m8[39;49m[22;1H[?12l[?25h[?12;25h
[38;36H[?25l[30m[48;5;250m9[39;49m[24;1H[?12l[?25h[?12;25h[38;35H[?25l[30m[48;5;250m100[39;49m[25;1H[?12l[?25h[?12;25h[38;37H[?25l[30m[48;5;250m1[39;49m[26;1H[?12l[?25h[?12;25h[38;37H[?25l[30m[48;5;250m2[39;49m[27;1H[?12l[?25h[?12;25h[38;37H[?25l[30m[48;5;250m3[39;49m[28;1H[?12l[?25h[?12;25h[38;37H[?25l[30m[48;5;250m4[39;49m[29;1H[?12l[?25h[?12;25h[38;37H[?25l[30m[48;5;250m5[39;49m[30;1H[?12l[?25h[?12;25h[38;37H[?25l[30m[48;5;250m6[39;49m[31;1H[?12l[?25h[?12;25h[38;37H[?25l[30m[48;5;250m7[39;49m[32;1H[?12l[?25h[?12;25h[38;37H[?25l[30m[48;5;250m8[39;49m[33;1H[?12l[?25h[?12;25h[38;37H[?25l[30m[48;5;250m9[39;49m[34;1H[?12l[?25h[?12;25h[38;36H[?25l[30m[48;5;250m10[39;49m[35;1H[?12l[?25h[?12;25h[38;37H[?25l[30m[48;5;250m1[39;49m[36;1H[?12l[?25h[?12;25h[38;37H[?25l[30m[48;5;250m2[39;49m[A[?12l[?25h[?12;25h[1;37r[2;1H[18M[1;39r[20;1H[?25l    1151:       48 89 75 f0             mov    %rsi,-0x10(%rbp)[K
    1155:       48 8b 55 f0             mov    -0x10(%rbp),%rdx[K
    1159:       48 8b 45 f8             mov    -0x8(%rbp),%rax[K
    115d:       48 8d 35 a0 0e 00 00    lea    0xea0(%rip),%rsi        # 2004 <_IO\
[A
_stdin_used+0x4>[K
    1164:       48 89 c7                mov    %rax,%rdi[K
    1167:       b8 00 00 00 00          mov    $0x0,%eax[K
    116c:       e8 bf fe ff ff          callq  1030 <fprintf@plt>[K
    1171:       90                      nop[K
    1172:       c9                      leaveq[K
    1173:       c3                      retq[K
[K
0000000000001174 <main>:[K
    1174:       55                      push   %rbp[K
    1175:       48 89 e5                mov    %rsp,%rbp[K
    1178:       48 83 ec 20             sub    $0x20,%rsp[K
    117c:       89 7d ec                mov    %edi,-0x14(%rbp)[K
    117f:       48 89 75 e0             mov    %rsi,-0x20(%rbp)[K[38;30H[30m[48;5;250m46% L113[39;49m[20;1H[?12l[?25h[?12;25h[38;37H[?25l[30m[48;5;250m4[39;49m[21;1H[?12l[?25h[?12;25h[38;37H[?25l[30m[48;5;250m5[39;49m[22;1H[?12l[?25h[?12;25h[38;37H[?25l[30m[48;5;250m6[39;49m[23;1H[?12l[?25h[?12;25h
[38;37H[?25l[30m[48;5;250m7[39;49m[25;1H[?12l[?25h[?12;25h[38;37H[?25l[30m[48;5;250m8[39;49m[26;1H[?12l[?25h[?12;25h[38;37H[?25l[30m[48;5;250m9[39;49m[27;1H[?12l[?25h[?12;25h[38;36H[?25l[30m[48;5;250m20[39;49m[28;1H[?12l[?25h[?12;25h[38;37H[?25l[30m[48;5;250m1[39;49m[29;1H[?12l[?25h[?12;25h[38;37H[?25l[30m[48;5;250m2[39;49m[30;1H[?12l[?25h[?12;25h[38;37H[?25l[30m[48;5;250m3[39;49m[31;1H[?12l[?25h[?12;25h[38;37H[?25l[30m[48;5;250m4[39;49m[32;1H[?12l[?25h[?12;25h[38;37H[?25l[30m[48;5;250m5[39;49m[33;1H[?12l[?25h[?12;25h[38;37H[?25l[30m[48;5;250m6[39;49m[34;1H[?12l[?25h[?12;25h[38;37H[?25l[30m[48;5;250m7[39;49m[35;1H[?12l[?25h[?12;25h[38;37H[?25l[30m[48;5;250m8[39;49m[36;1H[?12l[?25h[?12;25h[38;37H[?25l[30m[48;5;250m9[39;49m[A[?12l[?25h[?12;25h[1;37r[2;1H[18M[1;39r[20;1H[?25l    1183:       83 7d ec 01             cmpl   $0x1,-0x14(%rbp)[K
    1187:       75 2c                   jne    11b5 <main+0x41>[K
    1189:       48 8b 45 e0             mov    -0x20(%rbp),%rax[K
    118d:       48 8b 10                mov    (%rax),%rdx[K
    1190:       48 8b 05 c9 2e 00 00    mov    0x2ec9(%rip),%rax        # 4060 <st\
[A
derr@@GLIBC_2.2.5>[K
    1197:       48 8d 35 70 0e 00 00    lea    0xe70(%rip),%rsi        # 200e <_IO\
[A
_stdin_used+0xe>[K
    119e:       48 89 c7                mov    %rax,%rdi[K
    11a1:       b8 00 00 00 00          mov    $0x0,%eax[K
    11a6:       e8 85 fe ff ff          callq  1030 <fprintf@plt>[K
    11ab:       bf ef be ad de          mov    $0xdeadbeef,%edi[K
    11b0:       e8 8b fe ff ff          callq  1040 <exit@plt>[K
    11b5:       c7 45 fc 01 00 00 00    movl   $0x1,-0x4(%rbp)[K
    11bc:       eb 2d                   jmp    11eb <main+0x77>[K
    11be:       8b 45 fc                mov    -0x4(%rbp),%eax[K
    11c1:       48 98                   cltq[K
    11c3:       48 8d 14 c5 00 00 00    lea    0x0(,%rax,8),%rdx[K[38;30H[30m[48;5;250m54% L130[39;49m[20;1H[?12l[?25h[?12;25h[38;37H[?25l[30m[48;5;250m1[39;49m[21;1H[?12l[?25h[?12;25h[38;37H[?25l[30m[48;5;250m2[39;49m[22;1H[?12l[?25h[?12;25h[38;37H[?25l[30m[48;5;250m3[39;49m[23;1H[?12l[?25h[?12;25h[38;37H[?25l[30m[48;5;250m4[39;49m[24;1H[?12l[?25h[?12;25h
[38;37H[?25l[30m[48;5;250m5[39;49m[26;1H[?12l[?25h[?12;25h
[38;37H[?25l[30m[48;5;250m6[39;49m[28;1H[?12l[?25h[?12;25h[38;37H[?25l[30m[48;5;250m7[39;49m[29;1H[?12l[?25h[?12;25h[38;37H[?25l[30m[48;5;250m8[39;49m[30;1H[?12l[?25h[?12;25h[38;37H[?25l[30m[48;5;250m9[39;49m[31;1H[?12l[?25h[?12;25h[38;36H[?25l[30m[48;5;250m40[39;49m[32;1H[?12l[?25h[?12;25h[38;37H[?25l[30m[48;5;250m1[39;49m[33;1H[?12l[?25h[?12;25h[38;37H[?25l[30m[48;5;250m2[39;49m[34;1H[?12l[?25h[?12;25h[38;37H[?25l[30m[48;5;250m3[39;49m[35;1H[?12l[?25h[?12;25h[38;37H[?25l[30m[48;5;250m4[39;49m[36;1H[?12l[?25h[?12;25h[38;37H[?25l[30m[48;5;250m5[39;49m[A[?12l[?25h[?12;25h[1;37r[2;1H[18M[1;39r[20;1H[?25l    11ca:       00[K
    11cb:       48 8b 45 e0             mov    -0x20(%rbp),%rax[K
    11cf:       48 01 d0                add    %rdx,%rax[K
    11d2:       48 8b 10                mov    (%rax),%rdx[K
    11d5:       48 8b 05 64 2e 00 00    mov    0x2e64(%rip),%rax        # 4040 <st\
[A
dout@@GLIBC_2.2.5>[K
    11dc:       48 89 d6                mov    %rdx,%rsi[K
    11df:       48 89 c7                mov    %rax,%rdi[K
    11e2:       e8 5e ff ff ff          callq  1145 <hello>[K
    11e7:       83 45 fc 01             addl   $0x1,-0x4(%rbp)[K
    11eb:       8b 45 fc                mov    -0x4(%rbp),%eax[K
    11ee:       3b 45 ec                cmp    -0x14(%rbp),%eax[K
    11f1:       7c cb                   jl     11be <main+0x4a>[K
    11f3:       b8 00 00 00 00          mov    $0x0,%eax[K
    11f8:       c9                      leaveq[K
    11f9:       c3                      retq[K
    11fa:       66 0f 1f 44 00 00       nopw   0x0(%rax,%rax,1)[K
[K[38;30H[30m[48;5;250m62% L146[39;49m[20;1H[?12l[?25h[?12;25h[38;37H[?25l[30m[48;5;250m7[39;49m[21;1H[?12l[?25h[?12;25h[38;37H[?25l[30m[48;5;250m8[39;49m[22;1H[?12l[?25h[?12;25h[38;37H[?25l[30m[48;5;250m9[39;49m[23;1H[?12l[?25h[?12;25h[38;36H[?25l[30m[48;5;250m50[39;49m[24;1H[?12l[?25h[?12;25h
[38;37H[?25l[30m[48;5;250m1[39;49m[26;1H[?12l[?25h[?12;25h[38;37H[?25l[30m[48;5;250m2[39;49m[27;1H[?12l[?25h[?12;25h[38;37H[?25l[30m[48;5;250m3[39;49m[28;1H[?12l[?25h[?12;25h[38;37H[?25l[30m[48;5;250m4[39;49m[29;1H[?12l[?25h[?12;25h[38;37H[?25l[30m[48;5;250m5[39;49m[30;1H[?12l[?25h[?12;25h[38;37H[?25l[30m[48;5;250m6[39;49m[31;1H[?12l[?25h[?12;25h[38;37H[?25l[30m[48;5;250m7[39;49m[32;1H[?12l[?25h[?12;25h[38;37H[?25l[30m[48;5;250m8[39;49m[33;1H[?12l[?25h[?12;25h[38;37H[?25l[30m[48;5;250m9[39;49m[34;1H[?12l[?25h[?12;25h[38;36H[?25l[30m[48;5;250m60[39;49m[35;1H[?12l[?25h[?12;25h[38;37H[?25l[30m[48;5;250m1[39;49m[36;1H[?12l[?25h[?12;25h[38;37H[?25l[30m[48;5;250m2[39;49m[A[?12l[?25h[?12;25h[1;36r[2;1H[18M[1;39r[19;1H[K
[?25l0000000000001200 <__libc_csu_init>:[K
    1200:       41 57                   push   %r15[K
    1202:       49 89 d7                mov    %rdx,%r15[K
    1205:       41 56                   push   %r14[K
    1207:       49 89 f6                mov    %rsi,%r14[K
    120a:       41 55                   push   %r13[K
    120c:       41 89 fd                mov    %edi,%r13d[K
    120f:       41 54                   push   %r12[K
    1211:       4c 8d 25 d0 2b 00 00    lea    0x2bd0(%rip),%r12        # 3de8 <__\
[A
frame_dummy_init_array_entry>[K
    1218:       55                      push   %rbp[K
    1219:       48 8d 2d d0 2b 00 00    lea    0x2bd0(%rip),%rbp        # 3df0 <__\
[A
init_array_end>[K
    1220:       53                      push   %rbx[K
    1221:       4c 29 e5                sub    %r12,%rbp[K
    1224:       48 83 ec 08             sub    $0x8,%rsp[K
    1228:       e8 d3 fd ff ff          callq  1000 <_init>[K[37;5H122d:       48 c1 fd 03             sar    $0x3,%rbp[38;30H[30m[48;5;250m72% L163[39;49m[20;1H[?12l[?25h[?12;25h[38;37H[?25l[30m[48;5;250m4[39;49m[21;1H[?12l[?25h[?12;25h[38;37H[?25l[30m[48;5;250m5[39;49m[22;1H[?12l[?25h[?12;25h[38;37H[?25l[30m[48;5;250m6[39;49m[23;1H[?12l[?25h[?12;25h[38;37H[?25l[30m[48;5;250m7[39;49m[24;1H[?12l[?25h[?12;25h[38;37H[?25l[30m[48;5;250m8[39;49m[25;1H[?12l[?25h[?12;25h[38;37H[?25l[30m[48;5;250m9[39;49m[26;1H[?12l[?25h[?12;25h[38;36H[?25l[30m[48;5;250m70[39;49m[27;1H[?12l[?25h[?12;25h[38;37H[?25l[30m[48;5;250m1[39;49m[28;1H[?12l[?25h[?12;25h
[38;37H[?25l[30m[48;5;250m2[39;49m[30;1H[?12l[?25h[?12;25h[38;37H[?25l[30m[48;5;250m3[39;49m[31;1H[?12l[?25h[?12;25h
[38;37H[?25l[30m[48;5;250m4[39;49m[33;1H[?12l[?25h[?12;25h[38;37H[?25l[30m[48;5;250m5[39;49m[34;1H[?12l[?25h[?12;25h[38;37H[?25l[30m[48;5;250m6[39;49m[35;1H[?12l[?25h[?12;25h[38;37H[?25l[30m[48;5;250m7[39;49m[36;1H[?12l[?25h[?12;25h[38;37H[?25l[30m[48;5;250m8[39;49m[A[?12l[?25h[?12;25h[1;37r[2;1H[18M[1;39r[20;1H[?25l    1231:       74 1b                   je     124e <__libc_csu_init+0x4e>[K
    1233:       31 db                   xor    %ebx,%ebx[K
    1235:       0f 1f 00                nopl   (%rax)[K
    1238:       4c 89 fa                mov    %r15,%rdx[K
    123b:       4c 89 f6                mov    %r14,%rsi[K
    123e:       44 89 ef                mov    %r13d,%edi[K
    1241:       41 ff 14 dc             callq  *(%r12,%rbx,8)[K
    1245:       48 83 c3 01             add    $0x1,%rbx[K
    1249:       48 39 dd                cmp    %rbx,%rbp[K
    124c:       75 ea                   jne    1238 <__libc_csu_init+0x38>[K
    124e:       48 83 c4 08             add    $0x8,%rsp[K
    1252:       5b                      pop    %rbx[K
    1253:       5d                      pop    %rbp[K
    1254:       41 5c                   pop    %r12[K
    1256:       41 5d                   pop    %r13[K
    1258:       41 5e                   pop    %r14[K
    125a:       41 5f                   pop    %r15[K
    125c:       c3                      retq[K[38;30H[30m[48;5;250m80% L179[39;49m[20;1H[?12l[?25h[?12;25h[38;36H[?25l[30m[48;5;250m80[39;49m[21;1H[?12l[?25h[?12;25h[38;37H[?25l[30m[48;5;250m1[39;49m[22;1H[?12l[?25h[?12;25h[38;37H[?25l[30m[48;5;250m2[39;49m[23;1H[?12l[?25h[?12;25h[38;37H[?25l[30m[48;5;250m3[39;49m[24;1H[?12l[?25h[?12;25h[38;37H[?25l[30m[48;5;250m4[39;49m[25;1H[?12l[?25h[?12;25h[38;37H[?25l[30m[48;5;250m5[39;49m[26;1H[?12l[?25h[?12;25h[38;37H[?25l[30m[48;5;250m6[39;49m[27;1H[?12l[?25h[?12;25h[38;37H[?25l[30m[48;5;250m7[39;49m[28;1H[?12l[?25h[?12;25h[38;37H[?25l[30m[48;5;250m8[39;49m[29;1H[?12l[?25h[?12;25h[38;37H[?25l[30m[48;5;250m9[39;49m[30;1H[?12l[?25h[?12;25h[38;36H[?25l[30m[48;5;250m90[39;49m[31;1H[?12l[?25h[?12;25h[38;37H[?25l[30m[48;5;250m1[39;49m[32;1H[?12l[?25h[?12;25h[38;37H[?25l[30m[48;5;250m2[39;49m[33;1H[?12l[?25h[?12;25h[38;37H[?25l[30m[48;5;250m3[39;49m[34;1H[?12l[?25h[?12;25h[38;37H[?25l[30m[48;5;250m4[39;49m[35;1H[?12l[?25h[?12;25h[38;37H[?25l[30m[48;5;250m5[39;49m[36;1H[?12l[?25h[?12;25h[38;37H[?25l[30m[48;5;250m6[39;49m[A[?12l[?25h[?12;25h[1;37r[2;1H[18M[1;39r[20;1H[?25l    125d:       0f 1f 00                nopl   (%rax)[K
[K
0000000000001260 <__libc_csu_fini>:[K
    1260:       c3                      retq[K
[K
Disassembly of section .fini:[K
[K
0000000000001264 <_fini>:[K
    1264:       48 83 ec 08             sub    $0x8,%rsp[K
    1268:       48 83 c4 08             add    $0x8,%rsp[K
    126c:       c3                      retq[K
[K
[K
[K
[K
[K
[K
[K[38;30H[30m[48;5;250mBot L197[39;49m[20;1H[?12l[?25h[?12;25h[38;37H[?25l[30m[48;5;250m8[39;49m[21;1H[?12l[?25h[?12;25h[38;37H[?25l[30m[48;5;250m9[39;49m[22;1H[?12l[?25h[?12;25h[38;35H[?25l[30m[48;5;250m200[39;49m[23;1H[?12l[?25h[?12;25h[38;37H[?25l[30m[48;5;250m1[39;49m[24;1H[?12l[?25h[?12;25h[38;37H[?25l[30m[48;5;250m2[39;49m[25;1H[?12l[?25h[?12;25h[38;37H[?25l[30m[48;5;250m3[39;49m[26;1H[?12l[?25h[?12;25h[38;37H[?25l[30m[48;5;250m4[39;49m[27;1H[?12l[?25h[?12;25h[38;37H[?25l[30m[48;5;250m5[39;49m[28;1H[?12l[?25h[?12;25h[38;37H[?25l[30m[48;5;250m6[39;49m[29;1H[?12l[?25h[?12;25h[38;37H[?25l[30m[48;5;250m7[39;49m[30;1H[?12l[?25h[?12;25h[38;37H[?25l[30m[48;5;250m8[39;49m[31;1H[?12l[?25h[?12;25h[39d[?25lEnd of buffer[31;1H[?12l[?25h[?12;25h[39d[K[31d[39d[?25l(No changes need to be saved)[31;1H[?12l[?25h[?12;25h[39d[K[31d[39d[K[?1004l[?2004l[?1l>[?12l[?25h[?1049l[23;0;0t[39;49m
[1]+  Stopped                 emacs hello.objdump
jgordo39@remote07:~/i220a/submit/lab5/exercises$ fg
emacs hello.objdump
[?1049h[22;0;0t[?12;25h[?1h=[?1004h[?2004h[39;1H[K[H[?25l[7mFile Edit Options Buffers Tools Help                                               [0m[39;49m[27m
[A
    1231:       74 1b                   je     124e <__libc_csu_init+0x4e>[K
    1233:       31 db                   xor    %ebx,%ebx[K
    1235:       0f 1f 00                nopl   (%rax)[K
    1238:       4c 89 fa                mov    %r15,%rdx[K
    123b:       4c 89 f6                mov    %r14,%rsi[K
    123e:       44 89 ef                mov    %r13d,%edi[K
    1241:       41 ff 14 dc             callq  *(%r12,%rbx,8)[K
    1245:       48 83 c3 01             add    $0x1,%rbx[K
    1249:       48 39 dd                cmp    %rbx,%rbp[K
    124c:       75 ea                   jne    1238 <__libc_csu_init+0x38>[K
    124e:       48 83 c4 08             add    $0x8,%rsp[K
    1252:       5b                      pop    %rbx[K
    1253:       5d                      pop    %rbp[K
    1254:       41 5c                   pop    %r12[K
    1256:       41 5d                   pop    %r13[K
    1258:       41 5e                   pop    %r14[K
    125a:       41 5f                   pop    %r15[K
    125c:       c3                      retq[K
    125d:       0f 1f 00                nopl   (%rax)[K
[K
0000000000001260 <__libc_csu_fini>:[K
    1260:       c3                      retq[K
[K
Disassembly of section .fini:[K
[K
0000000000001264 <_fini>:[K
    1264:       48 83 ec 08             sub    $0x8,%rsp[K
    1268:       48 83 c4 08             add    $0x8,%rsp[K
    126c:       c3                      retq[K
[K
[K
[K
[K
[K
[K
[K
[30m[48;5;250m-UU-:----F1  [39;49m[1m[30m[48;5;250mhello.objdump[0m[39;49m[30m[48;5;250m   Bot L208   (Fundamental) 10:35AM 0.12 ----------------[39;49m
[A[31d[?12l[?25h[?12;25h[39d[K[?1004l[?2004l[?1l>[?12l[?25h[?1049l[23;0;0t[39;49mjgordo39@remote07:~/i220a/submit/lab5/exercises$ objdump -d -s -x hello > hello.obj dump
jgordo39@remote07:~/i220a/submit/lab5/exercises$ objdump -d -s -x hello > hello.objdump[A[C[C[C[C[C[C[C[C[C[C[C[C[C[C[C[C[C[C[C[C[C[C[C[C[C[C[C[C[C[C[C[C[C[C[C[C[C[C[C[C[C[C[C[C[Cfg[K
[K[A[C[C[C[C[C[C[C[C[C[C[C[C[C[C[C[C[C[C[C[C[C[C[C[C[C[C[C[C[C[C[C[C[C[C[C[C[C[C[C[C[C[C[C[C[C[C[C[C[C[C[Cemacs hello.objdump
[?1049h[22;0;0t[?12;25h[?1h=[H[2J[39d[K[?1l>[?12l[?25h[?1049l[23;0;0t[39;49m[?1049h[22;0;0t[?12;25h[?1h=[H[2J[38d[?25l[30m[47m-UUU:----F1  [39;49m[1m[30m[47m*scratch*   [0m[39;49m[30m[47m   All L1     (Fundamental) ------------------------------[39;49m
[A[2d[?12l[?25h[?12;25h[39d[?25lLoading /etc/emacs/site-start.d/00debian.el (source)...done[K[H
[?12l[?25h[?12;25h[39;33H[?25l50a2ps.el (source)...[K[H
[?12l[?25h[?12;25h[39;54H[?25ldone[H
[?12l[?25h[?12;25h[39;36H[?25lsymptote.el (source)...[H
[?12l[?25h[?12;25h[39;59H[?25ldone[H
[?12l[?25h[?12;25h[39;36H[?25lutoconf.el (source)...[K[H
[?12l[?25h[?12;25h[39;58H[?25ldone[H
[?12l[?25h[?12;25h[39;35H[?25lcmake-data.el (source)...[K[H
[?12l[?25h[?12;25h[39;60H[?25ldone[H
[?12l[?25h[?12;25h[39;35H[?25ldevhelp.el (source)...[K[H
[?12l[?25h[?12;25h[39;57H[?25ldone[H
[?12l[?25h[?12;25h[39;36H[?25lictionaries-common.el (source)...[H
[?12l[?25h[?12;25h[39;9H[?25ldebian-ispell...[K[H
[?12l[?25h[?12;25h[39;9H[?25l/var/cache/dictionaries-common/emacsen-ispell-default.el (source)...[H
[?12l[?25h[?12;25h[39;77H[?25ldone[H
[?12l[?25h[?12;25h[39;9H[?25ldebian-ispell...done[K[H
[?12l[?25h[?12;25h[39;9H[?25l/var/cache/dictionaries-common/emacsen-ispell-dicts.el (source)...[H
[?12l[?25h[?12;25h[39;75H[?25ldone[H
[?12l[?25h[?12;25h[39;10H[?25letc/emacs/site-start.d/50dictionaries-common[6P[H
[?12l[?25h[?12;25h[39;35H[?25lerlang-mode.el (source)...[K[H
[?12l[?25h[?12;25h[39;61H[?25ldone[H
[?12l[?25h[?12;25h[39;35H[?25lhaskell-mode.el (source)...[K[H
[?12l[?25h[?12;25h[39d[?25ll (source)...[K[H[7mFile Edit Options Buffers Tools Help                                               [0m[39;49m[27m
[A
[K
[K
[K
[K
[K
[K
[K
[K
[K
[K
[K
[K
[K
[K
[K
[K
[K
[K
[K
[K
[K
[K
[K
[K
[K
[K
[K
[K
[K
[K
[K
[K
[K
[K
[K
[30m[47m-UUU:----F1  [39;49m[1m[30m[47m*scratch*   [0m[39;49m[30m[47m   All L1     (Fundamental) ------------------------------[39;49m
[A
Loading /usr/share/emacs/site-lisp/elpa/haskell-mode-16.1/haskell-mode-autoloads.e\
[A[2d[?12l[?25h[?12;25h[39;14H[?25ldone[H
[?12l[?25h[?12;25h[39d[K[38;10H[?25letc/emacs/site-start.d/50haskell-mode.el (source)...done[K[H
[?12l[?25h[?12;25h[38;35H[?25llatex-cjk-common.el (source)...[H
[?12l[?25h[?12;25h[38;10H[?25lusr/share/emacs/site-lisp/latex-cjk-commo[9@n/cjk-enc[H
[?12l[?25h[?12;25h[38;75H[?25ldone[H
[?12l[?25h[?12;25h[38;10H[?25letc/emacs/site-start.d/50latex-cjk-common[9P[H
[?12l[?25h[?12;25h[38;45H[?25lthai.el (source)...[K[H
[?12l[?25h[?12;25h[38;64H[?25ldone[H
[?12l[?25h[?12;25h[38;35H[?25lpsvn.el (source)...[K[H
[?12l[?25h[?12;25h[38;54H[?25ldone[H
[?12l[?25h[?12;25h[38;36H[?25lython-docutils.el (source)...[H
[?12l[?25h[?12;25h[38;65H[?25ldone[H
[?12l[?25h[?12;25h[38;35H[?25ltcsh.el (source)...[K[H
[?12l[?25h[?12;25h[38;54H[?25ldone[H
[?12l[?25h[?12;25h[38;36H[?25lexlive-lang-english.el (source)...[H
[?12l[?25h[?12;25h[38;70H[?25ldone[H
[?12l[?25h[?12;25h[>0c[?2004h[?1004h[39d[?25lFor information about GNU Emacs and the GNU system, type C-h C-a.[K[H[7mFile Edit Options Buffers Tools Lisp-Interaction Help                              [0m[39;49m[27m
[A
[K
[K
[K
[K
[K
[K
[K
[K
[K
[K
[K
[K
[K
[K
[K
[K
[K
[K
[K
[K
[K
[K
[K
[K
[K
[K
[K
[K
[K
[K
[K
[K
[K
[K
[K
[K
[30m[48;5;250m-UUU:----F1  [39;49m[1m[30m[48;5;250m*scratch*   [0m[39;49m[30m[48;5;250m   All L1     (Lisp Interaction ElDoc) 10:35AM -----------[39;49m
[A[2d[?12l[?25h[?12;25h[39d[?25lFor information about GNU Emacs and the GNU system, type C-h C-a.[K[H[7mFile Edit Options Buffers Tools Help                                               [0m[39;49m[27m
[A
[K
hello:     file format elf64-x86-64[K
hello[K
architecture: i386:x86-64, flags 0x00000150:[K
HAS_SYMS, DYNAMIC, D_PAGED[K
start address 0x0000000000001060[K
[K
Program Header:[K
    PHDR off    0x0000000000000040 vaddr 0x0000000000000040 paddr 0x00000000000000\
[A
40 align 2**3[K
         filesz 0x0000000000000268 memsz 0x0000000000000268 flags r--[K
  INTERP off    0x00000000000002a8 vaddr 0x00000000000002a8 paddr 0x00000000000002\
[A
a8 align 2**0[K
         filesz 0x000000000000001c memsz 0x000000000000001c flags r--[K
    LOAD off    0x0000000000000000 vaddr 0x0000000000000000 paddr 0x00000000000000\
[A
00 align 2**12[K
         filesz 0x0000000000000618 memsz 0x0000000000000618 flags r--[K
    LOAD off    0x0000000000001000 vaddr 0x0000000000001000 paddr 0x00000000000010\
[A
00 align 2**12[K
         filesz 0x000000000000026d memsz 0x000000000000026d flags r-x[K
    LOAD off    0x0000000000002000 vaddr 0x0000000000002000 paddr 0x00000000000020\
[A
00 align 2**12[K
         filesz 0x0000000000000190 memsz 0x0000000000000190 flags r--[K
    LOAD off    0x0000000000002de8 vaddr 0x0000000000003de8 paddr 0x0000000000003d\
[A
e8 align 2**12[K
         filesz 0x0000000000000250 memsz 0x0000000000000288 flags rw-[K
 DYNAMIC off    0x0000000000002df8 vaddr 0x0000000000003df8 paddr 0x0000000000003d\
[A
f8 align 2**3[K
         filesz 0x00000000000001e0 memsz 0x00000000000001e0 flags rw-[K
    NOTE off    0x00000000000002c4 vaddr 0x00000000000002c4 paddr 0x00000000000002\
[A
c4 align 2**2[K
         filesz 0x0000000000000044 memsz 0x0000000000000044 flags r--[K
EH_FRAME off    0x0000000000002024 vaddr 0x0000000000002024 paddr 0x00000000000020\
[A
24 align 2**2[K
         filesz 0x0000000000000044 memsz 0x0000000000000044 flags r--[K
   STACK off    0x0000000000000000 vaddr 0x0000000000000000 paddr 0x00000000000000\
[A
[30m[48;5;250m-UU-:----F1  [39;49m[1m[30m[48;5;250mhello.objdump[0m[39;49m[30m[48;5;250m   Top L1     (Fundamental) 10:35AM ---------------------[39;49m
[A[2d[?12l[?25h[?12;25h[39d[K[2d[38;35H[?25l[30m[48;5;250m2[39;49m[H

[?12l[?25h[?12;25h[38;35H[?25l[30m[48;5;250m3[39;49m[4;1H[?12l[?25h[?12;25h[38;35H[?25l[30m[48;5;250m4[39;49m[5;1H[?12l[?25h[?12;25h[38;35H[?25l[30m[48;5;250m5[39;49m[6;1H[?12l[?25h[?12;25h[38;35H[?25l[30m[48;5;250m6[39;49m[7;1H[?12l[?25h[?12;25h[38;35H[?25l[30m[48;5;250m7[39;49m[8;1H[?12l[?25h[?12;25h[38;35H[?25l[30m[48;5;250m8[39;49m[9;1H[?12l[?25h[?12;25h[38;35H[?25l[30m[48;5;250m9[39;49m[10;1H[?12l[?25h[?12;25h
[38;35H[?25l[30m[48;5;250m10[39;49m[12;1H[?12l[?25h[?12;25h[38;36H[?25l[30m[48;5;250m1[39;49m[13;1H[?12l[?25h[?12;25h
[38;36H[?25l[30m[48;5;250m2[39;49m[15;1H[?12l[?25h[?12;25h[38;36H[?25l[30m[48;5;250m3[39;49m[16;1H[?12l[?25h[?12;25h
[38;36H[?25l[30m[48;5;250m4[39;49m[18;1H[?12l[?25h[?12;25h[38;36H[?25l[30m[48;5;250m5[39;49m[19;1H[?12l[?25h[?12;25h
[38;36H[?25l[30m[48;5;250m6[39;49m[21;1H[?12l[?25h[?12;25h[38;36H[?25l[30m[48;5;250m7[39;49m[22;1H[?12l[?25h[?12;25h
[38;36H[?25l[30m[48;5;250m8[39;49m[24;1H[?12l[?25h[?12;25h[38;36H[?25l[30m[48;5;250m9[39;49m[25;1H[?12l[?25h[?12;25h
[38;35H[?25l[30m[48;5;250m20[39;49m[27;1H[?12l[?25h[?12;25h[38;36H[?25l[30m[48;5;250m1[39;49m[28;1H[?12l[?25h[?12;25h
[38;36H[?25l[30m[48;5;250m2[39;49m[30;1H[?12l[?25h[?12;25h[38;36H[?25l[30m[48;5;250m3[39;49m[31;1H[?12l[?25h[?12;25h
[38;36H[?25l[30m[48;5;250m4[39;49m[33;1H[?12l[?25h[?12;25h[38;36H[?25l[30m[48;5;250m5[39;49m[34;1H[?12l[?25h[?12;25h
[38;36H[?25l[30m[48;5;250m6[39;49m[36;1H[?12l[?25h[?12;25h[38;36H[?25l[30m[48;5;250m7[39;49m[A[?12l[?25h[?12;25h[1;37r[2;1H[18M[1;39r[20;1H[?25l00 align 2**4[K
         filesz 0x0000000000000000 memsz 0x0000000000000000 flags rw-[K
   RELRO off    0x0000000000002de8 vaddr 0x0000000000003de8 paddr 0x0000000000003d\
[A
e8 align 2**0[K
         filesz 0x0000000000000218 memsz 0x0000000000000218 flags r--[K
[K
Dynamic Section:[K
  NEEDED               libc.so.6[K
  INIT                 0x0000000000001000[K
  FINI                 0x0000000000001264[K
  INIT_ARRAY           0x0000000000003de8[K
  INIT_ARRAYSZ         0x0000000000000008[K
  FINI_ARRAY           0x0000000000003df0[K
  FINI_ARRAYSZ         0x0000000000000008[K
  GNU_HASH             0x0000000000000308[K
  STRTAB               0x0000000000000428[K
  SYMTAB               0x0000000000000338[K
  STRSZ                0x0000000000000098[K[38;30H[30m[48;5;250m 2%[39;49m[20;1H[?12l[?25h[?12;25h[38;36H[?25l[30m[48;5;250m8[39;49m[21;1H[?12l[?25h[?12;25h[38;36H[?25l[30m[48;5;250m9[39;49m[22;1H[?12l[?25h[?12;25h
[38;35H[?25l[30m[48;5;250m30[39;49m[24;1H[?12l[?25h[?12;25h[38;36H[?25l[30m[48;5;250m1[39;49m[25;1H[?12l[?25h[?12;25h[38;36H[?25l[30m[48;5;250m2[39;49m[26;1H[?12l[?25h[?12;25h[38;36H[?25l[30m[48;5;250m3[39;49m[27;1H[?12l[?25h[?12;25h[38;36H[?25l[30m[48;5;250m4[39;49m[28;1H[?12l[?25h[?12;25h[38;36H[?25l[30m[48;5;250m5[39;49m[29;1H[?12l[?25h[?12;25h[38;36H[?25l[30m[48;5;250m6[39;49m[30;1H[?12l[?25h[?12;25h[38;36H[?25l[30m[48;5;250m7[39;49m[31;1H[?12l[?25h[?12;25h[38;36H[?25l[30m[48;5;250m8[39;49m[32;1H[?12l[?25h[?12;25h[38;36H[?25l[30m[48;5;250m9[39;49m[33;1H[?12l[?25h[?12;25h[38;35H[?25l[30m[48;5;250m40[39;49m[34;1H[?12l[?25h[?12;25h[38;36H[?25l[30m[48;5;250m1[39;49m[35;1H[?12l[?25h[?12;25h[38;36H[?25l[30m[48;5;250m2[39;49m[36;1H[?12l[?25h[?12;25h[38;36H[?25l[30m[48;5;250m3[39;49m[A[?12l[?25h[?12;25h[1;37r[2;1H[18M[1;39r[20;1H[?25l  SYMENT               0x0000000000000018[K
  DEBUG                0x0000000000000000[K
  PLTGOT               0x0000000000004000[K
  PLTRELSZ             0x0000000000000030[K
  PLTREL               0x0000000000000007[K
  JMPREL               0x00000000000005e8[K
  RELA                 0x00000000000004f8[K
  RELASZ               0x00000000000000f0[K
  RELAENT              0x0000000000000018[K
  FLAGS_1              0x0000000008000000[K
  VERNEED              0x00000000000004d8[K
  VERNEEDNUM           0x0000000000000001[K
  VERSYM               0x00000000000004c0[K
  RELACOUNT            0x0000000000000003[K
[K
Version References:[K
  required from libc.so.6:[K
    0x09691a75 0x00 02 GLIBC_2.2.5[K
[30m[48;5;250m5% L44[39;49m[20;1H[?12l[?25h[?12;25h[38;36H[?25l[30m[48;5;250m5[39;49m[21;1H[?12l[?25h[?12;25h[38;36H[?25l[30m[48;5;250m6[39;49m[22;1H[?12l[?25h[?12;25h[38;36H[?25l[30m[48;5;250m7[39;49m[23;1H[?12l[?25h[?12;25h[38;36H[?25l[30m[48;5;250m8[39;49m[24;1H[?12l[?25h[?12;25h[38;36H[?25l[30m[48;5;250m9[39;49m[25;1H[?12l[?25h[?12;25h[38;35H[?25l[30m[48;5;250m50[39;49m[26;1H[?12l[?25h[?12;25h[38;36H[?25l[30m[48;5;250m1[39;49m[27;1H[?12l[?25h[?12;25h[38;36H[?25l[30m[48;5;250m2[39;49m[28;1H[?12l[?25h[?12;25h[38;36H[?25l[30m[48;5;250m3[39;49m[29;1H[?12l[?25h[?12;25h[38;36H[?25l[30m[48;5;250m4[39;49m[30;1H[?12l[?25h[?12;25h[38;36H[?25l[30m[48;5;250m5[39;49m[31;1H[?12l[?25h[?12;25h[38;36H[?25l[30m[48;5;250m6[39;49m[32;1H[?12l[?25h[?12;25h[38;36H[?25l[30m[48;5;250m7[39;49m[33;1H[?12l[?25h[?12;25h[38;36H[?25l[30m[48;5;250m8[39;49m[34;1H[?12l[?25h[?12;25h[38;36H[?25l[30m[48;5;250m9[39;49m[35;1H[?12l[?25h[?12;25h[38;35H[?25l[30m[48;5;250m60[39;49m[36;1H[?12l[?25h[?12;25h[38;36H[?25l[30m[48;5;250m1[39;49m[A[?12l[?25h[?12;25h[1;37r[2;1H[18M[1;39r[20;1H[K
[?25lSections:[K
Idx Name          Size      VMA               LMA               File off  Algn[K
  0 .interp       0000001c  00000000000002a8  00000000000002a8  000002a8  2**0[K
                  CONTENTS, ALLOC, LOAD, READONLY, DATA[K
  1 .note.ABI-tag 00000020  00000000000002c4  00000000000002c4  000002c4  2**2[K
                  CONTENTS, ALLOC, LOAD, READONLY, DATA[K
  2 .note.gnu.build-id 00000024  00000000000002e4  00000000000002e4  000002e4  2**\
[A
2[K
                  CONTENTS, ALLOC, LOAD, READONLY, DATA[K
  3 .gnu.hash     00000030  0000000000000308  0000000000000308  00000308  2**3[K
                  CONTENTS, ALLOC, LOAD, READONLY, DATA[K
  4 .dynsym       000000f0  0000000000000338  0000000000000338  00000338  2**3[K
                  CONTENTS, ALLOC, LOAD, READONLY, DATA[K
  5 .dynstr       00000098  0000000000000428  0000000000000428  00000428  2**0[K
                  CONTENTS, ALLOC, LOAD, READONLY, DATA[K
  6 .gnu.version  00000014  00000000000004c0  00000000000004c0  000004c0  2**1[K
                  CONTENTS, ALLOC, LOAD, READONLY, DATA[K[38;31H[30m[48;5;250m6% L62[39;49m[20;1H[?12l[?25h[?12;25h[38;36H[?25l[30m[48;5;250m3[39;49m[21;1H[?12l[?25h[?12;25h[38;36H[?25l[30m[48;5;250m4[39;49m[22;1H[?12l[?25h[?12;25h[38;36H[?25l[30m[48;5;250m5[39;49m[23;1H[?12l[?25h[?12;25h[38;36H[?25l[30m[48;5;250m6[39;49m[24;1H[?12l[?25h[?12;25h[38;36H[?25l[30m[48;5;250m7[39;49m[25;1H[?12l[?25h[?12;25h[38;36H[?25l[30m[48;5;250m8[39;49m[26;1H[?12l[?25h[?12;25h[38;36H[?25l[30m[48;5;250m9[39;49m[27;1H[?12l[?25h[?12;25h
[38;35H[?25l[30m[48;5;250m70[39;49m[29;1H[?12l[?25h[?12;25h[38;36H[?25l[30m[48;5;250m1[39;49m[30;1H[?12l[?25h[?12;25h[38;36H[?25l[30m[48;5;250m2[39;49m[31;1H[?12l[?25h[?12;25h[38;36H[?25l[30m[48;5;250m3[39;49m[32;1H[?12l[?25h[?12;25h[38;36H[?25l[30m[48;5;250m4[39;49m[33;1H[?12l[?25h[?12;25h[38;36H[?25l[30m[48;5;250m5[39;49m[34;1H[?12l[?25h[?12;25h[38;36H[?25l[30m[48;5;250m6[39;49m[35;1H[?12l[?25h[?12;25h[38;36H[?25l[30m[48;5;250m7[39;49m[36;1H[?12l[?25h[?12;25h[38;36H[?25l[30m[48;5;250m8[39;49m[A[?12l[?25h[?12;25h[1;36r[3;1H[18M[1;39r[2;1H[K[19d[?25l                  CONTENTS, ALLOC, LOAD, READONLY, DATA[K
  7 .gnu.version_r 00000020  00000000000004d8  00000000000004d8  000004d8  2**3[K
                  CONTENTS, ALLOC, LOAD, READONLY, DATA[K
  8 .rela.dyn     000000f0  00000000000004f8  00000000000004f8  000004f8  2**3[K
                  CONTENTS, ALLOC, LOAD, READONLY, DATA[K
  9 .rela.plt     00000030  00000000000005e8  00000000000005e8  000005e8  2**3[K
                  CONTENTS, ALLOC, LOAD, READONLY, DATA[K
 10 .init         00000017  0000000000001000  0000000000001000  00001000  2**2[K
                  CONTENTS, ALLOC, LOAD, READONLY, CODE[K
 11 .plt          00000030  0000000000001020  0000000000001020  00001020  2**4[K
                  CONTENTS, ALLOC, LOAD, READONLY, CODE[K
 12 .plt.got      00000008  0000000000001050  0000000000001050  00001050  2**3[K
                  CONTENTS, ALLOC, LOAD, READONLY, CODE[K
 13 .text         00000201  0000000000001060  0000000000001060  00001060  2**4[K
                  CONTENTS, ALLOC, LOAD, READONLY, CODE[K
 14 .fini         00000009  0000000000001264  0000000000001264  00001264  2**2[K
                  CONTENTS, ALLOC, LOAD, READONLY, CODE[K
 15 .rodata       00000021  0000000000002000  0000000000002000  00002000  2**2[K[38;31H[30m[48;5;250m8% L79[39;49m[20;1H[?12l[?25h[?12;25h[38;35H[?25l[30m[48;5;250m80[39;49m[21;1H[?12l[?25h[?12;25h[38;36H[?25l[30m[48;5;250m1[39;49m[22;1H[?12l[?25h[?12;25h[38;36H[?25l[30m[48;5;250m2[39;49m[23;1H[?12l[?25h[?12;25h[38;36H[?25l[30m[48;5;250m3[39;49m[24;1H[?12l[?25h[?12;25h[38;36H[?25l[30m[48;5;250m4[39;49m[25;1H[?12l[?25h[?12;25h[38;36H[?25l[30m[48;5;250m5[39;49m[26;1H[?12l[?25h[?12;25h[38;36H[?25l[30m[48;5;250m6[39;49m[27;1H[?12l[?25h[?12;25h[38;36H[?25l[30m[48;5;250m7[39;49m[28;1H[?12l[?25h[?12;25h[38;36H[?25l[30m[48;5;250m8[39;49m[29;1H[?12l[?25h[?12;25h[38;36H[?25l[30m[48;5;250m9[39;49m[30;1H[?12l[?25h[?12;25h[38;35H[?25l[30m[48;5;250m90[39;49m[31;1H[?12l[?25h[?12;25h[38;36H[?25l[30m[48;5;250m1[39;49m[32;1H[?12l[?25h[?12;25h[38;36H[?25l[30m[48;5;250m2[39;49m[33;1H[?12l[?25h[?12;25h[38;36H[?25l[30m[48;5;250m3[39;49m[34;1H[?12l[?25h[?12;25h[38;36H[?25l[30m[48;5;250m4[39;49m[35;1H[?12l[?25h[?12;25h[38;36H[?25l[30m[48;5;250m5[39;49m[36;1H[?12l[?25h[?12;25h[38;36H[?25l[30m[48;5;250m6[39;49m[A[?12l[?25h[?12;25h[1;37r[2;1H[18M[1;39r[20;1H[?25l 16 .eh_frame_hdr 00000044  0000000000002024  0000000000002024  00002024  2**2[K
                  CONTENTS, ALLOC, LOAD, READONLY, DATA[K
 17 .eh_frame     00000128  0000000000002068  0000000000002068  00002068  2**3[K
                  CONTENTS, ALLOC, LOAD, READONLY, DATA[K
 18 .init_array   00000008  0000000000003de8  0000000000003de8  00002de8  2**3[K
                  CONTENTS, ALLOC, LOAD, DATA[K
 19 .fini_array   00000008  0000000000003df0  0000000000003df0  00002df0  2**3[K
                  CONTENTS, ALLOC, LOAD, DATA[K
 20 .dynamic      000001e0  0000000000003df8  0000000000003df8  00002df8  2**3[K
                  CONTENTS, ALLOC, LOAD, DATA[K
 21 .got          00000028  0000000000003fd8  0000000000003fd8  00002fd8  2**3[K
                  CONTENTS, ALLOC, LOAD, DATA[K
 22 .got.plt      00000028  0000000000004000  0000000000004000  00003000  2**3[K
                  CONTENTS, ALLOC, LOAD, DATA[K
 23 .data         00000010  0000000000004028  0000000000004028  00003028  2**3[K
                  CONTENTS, ALLOC, LOAD, DATA[K
 24 .bss          00000030  0000000000004040  0000000000004040  00003038  2**5[K
                  ALLOC[K[38;30H[30m[48;5;250m11% L97[39;49m[20;1H[?12l[?25h[?12;25h[38;36H[?25l[30m[48;5;250m8[39;49m[21;1H[?12l[?25h[?12;25h[38;36H[?25l[30m[48;5;250m9[39;49m[22;1H[?12l[?25h[?12;25h[38;35H[?25l[30m[48;5;250m100[39;49m[23;1H[?12l[?25h[?12;25h[38;37H[?25l[30m[48;5;250m1[39;49m[24;1H[?12l[?25h[?12;25h[38;37H[?25l[30m[48;5;250m2[39;49m[25;1H[?12l[?25h[?12;25h[38;37H[?25l[30m[48;5;250m3[39;49m[26;1H[?12l[?25h[?12;25h[38;37H[?25l[30m[48;5;250m4[39;49m[27;1H[?12l[?25h[?12;25h[38;37H[?25l[30m[48;5;250m5[39;49m[28;1H[?12l[?25h[?12;25h[38;37H[?25l[30m[48;5;250m6[39;49m[29;1H[?12l[?25h[?12;25h[39d[K[?1004l[?2004l[?1l>[?12l[?25h[?1049l[23;0;0t[39;49mjgordo39@remote07:~/i220a/submit/lab5/exercises$ objdump -d hello 

hello:     file format elf64-x86-64


Disassembly of section .init:

0000000000001000 <_init>:
    1000:	48 83 ec 08          	sub    $0x8,%rsp
    1004:	48 8b 05 dd 2f 00 00 	mov    0x2fdd(%rip),%rax        # 3fe8 <__gmon_start__>
    100b:	48 85 c0             	test   %rax,%rax
    100e:	74 02                	je     1012 <_init+0x12>
    1010:	ff d0                	callq  *%rax
    1012:	48 83 c4 08          	add    $0x8,%rsp
    1016:	c3                   	retq   

Disassembly of section .plt:

0000000000001020 <.plt>:
    1020:	ff 35 e2 2f 00 00    	pushq  0x2fe2(%rip)        # 4008 <_GLOBAL_OFFSET_TABLE_+0x8>
    1026:	ff 25 e4 2f 00 00    	jmpq   *0x2fe4(%rip)        # 4010 <_GLOBAL_OFFSET_TABLE_+0x10>
    102c:	0f 1f 40 00          	nopl   0x0(%rax)

0000000000001030 <fprintf@plt>:
    1030:	ff 25 e2 2f 00 00    	jmpq   *0x2fe2(%rip)        # 4018 <fprintf@GLIBC_2.2.5>
    1036:	68 00 00 00 00       	pushq  $0x0
    103b:	e9 e0 ff ff ff       	jmpq   1020 <.plt>

0000000000001040 <exit@plt>:
    1040:	ff 25 da 2f 00 00    	jmpq   *0x2fda(%rip)        # 4020 <exit@GLIBC_2.2.5>
    1046:	68 01 00 00 00       	pushq  $0x1
    104b:	e9 d0 ff ff ff       	jmpq   1020 <.plt>

Disassembly of section .plt.got:

0000000000001050 <__cxa_finalize@plt>:
    1050:	ff 25 a2 2f 00 00    	jmpq   *0x2fa2(%rip)        # 3ff8 <__cxa_finalize@GLIBC_2.2.5>
    1056:	66 90                	xchg   %ax,%ax

Disassembly of section .text:

0000000000001060 <_start>:
    1060:	31 ed                	xor    %ebp,%ebp
    1062:	49 89 d1             	mov    %rdx,%r9
    1065:	5e                   	pop    %rsi
    1066:	48 89 e2             	mov    %rsp,%rdx
    1069:	48 83 e4 f0          	and    $0xfffffffffffffff0,%rsp
    106d:	50                   	push   %rax
    106e:	54                   	push   %rsp
    106f:	4c 8d 05 ea 01 00 00 	lea    0x1ea(%rip),%r8        # 1260 <__libc_csu_fini>
    1076:	48 8d 0d 83 01 00 00 	lea    0x183(%rip),%rcx        # 1200 <__libc_csu_init>
    107d:	48 8d 3d f0 00 00 00 	lea    0xf0(%rip),%rdi        # 1174 <main>
    1084:	ff 15 56 2f 00 00    	callq  *0x2f56(%rip)        # 3fe0 <__libc_start_main@GLIBC_2.2.5>
    108a:	f4                   	hlt    
    108b:	0f 1f 44 00 00       	nopl   0x0(%rax,%rax,1)

0000000000001090 <deregister_tm_clones>:
    1090:	48 8d 3d a1 2f 00 00 	lea    0x2fa1(%rip),%rdi        # 4038 <__TMC_END__>
    1097:	48 8d 05 9a 2f 00 00 	lea    0x2f9a(%rip),%rax        # 4038 <__TMC_END__>
    109e:	48 39 f8             	cmp    %rdi,%rax
    10a1:	74 15                	je     10b8 <deregister_tm_clones+0x28>
    10a3:	48 8b 05 2e 2f 00 00 	mov    0x2f2e(%rip),%rax        # 3fd8 <_ITM_deregisterTMCloneTable>
    10aa:	48 85 c0             	test   %rax,%rax
    10ad:	74 09                	je     10b8 <deregister_tm_clones+0x28>
    10af:	ff e0                	jmpq   *%rax
    10b1:	0f 1f 80 00 00 00 00 	nopl   0x0(%rax)
    10b8:	c3                   	retq   
    10b9:	0f 1f 80 00 00 00 00 	nopl   0x0(%rax)

00000000000010c0 <register_tm_clones>:
    10c0:	48 8d 3d 71 2f 00 00 	lea    0x2f71(%rip),%rdi        # 4038 <__TMC_END__>
    10c7:	48 8d 35 6a 2f 00 00 	lea    0x2f6a(%rip),%rsi        # 4038 <__TMC_END__>
    10ce:	48 29 fe             	sub    %rdi,%rsi
    10d1:	48 c1 fe 03          	sar    $0x3,%rsi
    10d5:	48 89 f0             	mov    %rsi,%rax
    10d8:	48 c1 e8 3f          	shr    $0x3f,%rax
    10dc:	48 01 c6             	add    %rax,%rsi
    10df:	48 d1 fe             	sar    %rsi
    10e2:	74 14                	je     10f8 <register_tm_clones+0x38>
    10e4:	48 8b 05 05 2f 00 00 	mov    0x2f05(%rip),%rax        # 3ff0 <_ITM_registerTMCloneTable>
    10eb:	48 85 c0             	test   %rax,%rax
    10ee:	74 08                	je     10f8 <register_tm_clones+0x38>
    10f0:	ff e0                	jmpq   *%rax
    10f2:	66 0f 1f 44 00 00    	nopw   0x0(%rax,%rax,1)
    10f8:	c3                   	retq   
    10f9:	0f 1f 80 00 00 00 00 	nopl   0x0(%rax)

0000000000001100 <__do_global_dtors_aux>:
    1100:	80 3d 61 2f 00 00 00 	cmpb   $0x0,0x2f61(%rip)        # 4068 <completed.7325>
    1107:	75 2f                	jne    1138 <__do_global_dtors_aux+0x38>
    1109:	55                   	push   %rbp
    110a:	48 83 3d e6 2e 00 00 	cmpq   $0x0,0x2ee6(%rip)        # 3ff8 <__cxa_finalize@GLIBC_2.2.5>
    1111:	00 
    1112:	48 89 e5             	mov    %rsp,%rbp
    1115:	74 0c                	je     1123 <__do_global_dtors_aux+0x23>
    1117:	48 8b 3d 12 2f 00 00 	mov    0x2f12(%rip),%rdi        # 4030 <__dso_handle>
    111e:	e8 2d ff ff ff       	callq  1050 <__cxa_finalize@plt>
    1123:	e8 68 ff ff ff       	callq  1090 <deregister_tm_clones>
    1128:	c6 05 39 2f 00 00 01 	movb   $0x1,0x2f39(%rip)        # 4068 <completed.7325>
    112f:	5d                   	pop    %rbp
    1130:	c3                   	retq   
    1131:	0f 1f 80 00 00 00 00 	nopl   0x0(%rax)
    1138:	c3                   	retq   
    1139:	0f 1f 80 00 00 00 00 	nopl   0x0(%rax)

0000000000001140 <frame_dummy>:
    1140:	e9 7b ff ff ff       	jmpq   10c0 <register_tm_clones>

0000000000001145 <hello>:
    1145:	55                   	push   %rbp
    1146:	48 89 e5             	mov    %rsp,%rbp
    1149:	48 83 ec 10          	sub    $0x10,%rsp
    114d:	48 89 7d f8          	mov    %rdi,-0x8(%rbp)
    1151:	48 89 75 f0          	mov    %rsi,-0x10(%rbp)
    1155:	48 8b 55 f0          	mov    -0x10(%rbp),%rdx
    1159:	48 8b 45 f8          	mov    -0x8(%rbp),%rax
    115d:	48 8d 35 a0 0e 00 00 	lea    0xea0(%rip),%rsi        # 2004 <_IO_stdin_used+0x4>
    1164:	48 89 c7             	mov    %rax,%rdi
    1167:	b8 00 00 00 00       	mov    $0x0,%eax
    116c:	e8 bf fe ff ff       	callq  1030 <fprintf@plt>
    1171:	90                   	nop
    1172:	c9                   	leaveq 
    1173:	c3                   	retq   

0000000000001174 <main>:
    1174:	55                   	push   %rbp
    1175:	48 89 e5             	mov    %rsp,%rbp
    1178:	48 83 ec 20          	sub    $0x20,%rsp
    117c:	89 7d ec             	mov    %edi,-0x14(%rbp)
    117f:	48 89 75 e0          	mov    %rsi,-0x20(%rbp)
    1183:	83 7d ec 01          	cmpl   $0x1,-0x14(%rbp)
    1187:	75 2c                	jne    11b5 <main+0x41>
    1189:	48 8b 45 e0          	mov    -0x20(%rbp),%rax
    118d:	48 8b 10             	mov    (%rax),%rdx
    1190:	48 8b 05 c9 2e 00 00 	mov    0x2ec9(%rip),%rax        # 4060 <stderr@@GLIBC_2.2.5>
    1197:	48 8d 35 70 0e 00 00 	lea    0xe70(%rip),%rsi        # 200e <_IO_stdin_used+0xe>
    119e:	48 89 c7             	mov    %rax,%rdi
    11a1:	b8 00 00 00 00       	mov    $0x0,%eax
    11a6:	e8 85 fe ff ff       	callq  1030 <fprintf@plt>
    11ab:	bf ef be ad de       	mov    $0xdeadbeef,%edi
    11b0:	e8 8b fe ff ff       	callq  1040 <exit@plt>
    11b5:	c7 45 fc 01 00 00 00 	movl   $0x1,-0x4(%rbp)
    11bc:	eb 2d                	jmp    11eb <main+0x77>
    11be:	8b 45 fc             	mov    -0x4(%rbp),%eax
    11c1:	48 98                	cltq   
    11c3:	48 8d 14 c5 00 00 00 	lea    0x0(,%rax,8),%rdx
    11ca:	00 
    11cb:	48 8b 45 e0          	mov    -0x20(%rbp),%rax
    11cf:	48 01 d0             	add    %rdx,%rax
    11d2:	48 8b 10             	mov    (%rax),%rdx
    11d5:	48 8b 05 64 2e 00 00 	mov    0x2e64(%rip),%rax        # 4040 <stdout@@GLIBC_2.2.5>
    11dc:	48 89 d6             	mov    %rdx,%rsi
    11df:	48 89 c7             	mov    %rax,%rdi
    11e2:	e8 5e ff ff ff       	callq  1145 <hello>
    11e7:	83 45 fc 01          	addl   $0x1,-0x4(%rbp)
    11eb:	8b 45 fc             	mov    -0x4(%rbp),%eax
    11ee:	3b 45 ec             	cmp    -0x14(%rbp),%eax
    11f1:	7c cb                	jl     11be <main+0x4a>
    11f3:	b8 00 00 00 00       	mov    $0x0,%eax
    11f8:	c9                   	leaveq 
    11f9:	c3                   	retq   
    11fa:	66 0f 1f 44 00 00    	nopw   0x0(%rax,%rax,1)

0000000000001200 <__libc_csu_init>:
    1200:	41 57                	push   %r15
    1202:	49 89 d7             	mov    %rdx,%r15
    1205:	41 56                	push   %r14
    1207:	49 89 f6             	mov    %rsi,%r14
    120a:	41 55                	push   %r13
    120c:	41 89 fd             	mov    %edi,%r13d
    120f:	41 54                	push   %r12
    1211:	4c 8d 25 d0 2b 00 00 	lea    0x2bd0(%rip),%r12        # 3de8 <__frame_dummy_init_array_entry>
    1218:	55                   	push   %rbp
    1219:	48 8d 2d d0 2b 00 00 	lea    0x2bd0(%rip),%rbp        # 3df0 <__init_array_end>
    1220:	53                   	push   %rbx
    1221:	4c 29 e5             	sub    %r12,%rbp
    1224:	48 83 ec 08          	sub    $0x8,%rsp
    1228:	e8 d3 fd ff ff       	callq  1000 <_init>
    122d:	48 c1 fd 03          	sar    $0x3,%rbp
    1231:	74 1b                	je     124e <__libc_csu_init+0x4e>
    1233:	31 db                	xor    %ebx,%ebx
    1235:	0f 1f 00             	nopl   (%rax)
    1238:	4c 89 fa             	mov    %r15,%rdx
    123b:	4c 89 f6             	mov    %r14,%rsi
    123e:	44 89 ef             	mov    %r13d,%edi
    1241:	41 ff 14 dc          	callq  *(%r12,%rbx,8)
    1245:	48 83 c3 01          	add    $0x1,%rbx
    1249:	48 39 dd             	cmp    %rbx,%rbp
    124c:	75 ea                	jne    1238 <__libc_csu_init+0x38>
    124e:	48 83 c4 08          	add    $0x8,%rsp
    1252:	5b                   	pop    %rbx
    1253:	5d                   	pop    %rbp
    1254:	41 5c                	pop    %r12
    1256:	41 5d                	pop    %r13
    1258:	41 5e                	pop    %r14
    125a:	41 5f                	pop    %r15
    125c:	c3                   	retq   
    125d:	0f 1f 00             	nopl   (%rax)

0000000000001260 <__libc_csu_fini>:
    1260:	c3                   	retq   

Disassembly of section .fini:

0000000000001264 <_fini>:
    1264:	48 83 ec 08          	sub    $0x8,%rsp
    1268:	48 83 c4 08          	add    $0x8,%rsp
    126c:	c3                   	retq   
jgordo39@remote07:~/i220a/submit/lab5/exercises$ objdump -d hello | grep -A40 main. :
0000000000001174 <main>:
    1174:	55                   	push   %rbp
    1175:	48 89 e5             	mov    %rsp,%rbp
    1178:	48 83 ec 20          	sub    $0x20,%rsp
    117c:	89 7d ec             	mov    %edi,-0x14(%rbp)
    117f:	48 89 75 e0          	mov    %rsi,-0x20(%rbp)
    1183:	83 7d ec 01          	cmpl   $0x1,-0x14(%rbp)
    1187:	75 2c                	jne    11b5 <main+0x41>
    1189:	48 8b 45 e0          	mov    -0x20(%rbp),%rax
    118d:	48 8b 10             	mov    (%rax),%rdx
    1190:	48 8b 05 c9 2e 00 00 	mov    0x2ec9(%rip),%rax        # 4060 <stderr@@GLIBC_2.2.5>
    1197:	48 8d 35 70 0e 00 00 	lea    0xe70(%rip),%rsi        # 200e <_IO_stdin_used+0xe>
    119e:	48 89 c7             	mov    %rax,%rdi
    11a1:	b8 00 00 00 00       	mov    $0x0,%eax
    11a6:	e8 85 fe ff ff       	callq  1030 <fprintf@plt>
    11ab:	bf ef be ad de       	mov    $0xdeadbeef,%edi
    11b0:	e8 8b fe ff ff       	callq  1040 <exit@plt>
    11b5:	c7 45 fc 01 00 00 00 	movl   $0x1,-0x4(%rbp)
    11bc:	eb 2d                	jmp    11eb <main+0x77>
    11be:	8b 45 fc             	mov    -0x4(%rbp),%eax
    11c1:	48 98                	cltq   
    11c3:	48 8d 14 c5 00 00 00 	lea    0x0(,%rax,8),%rdx
    11ca:	00 
    11cb:	48 8b 45 e0          	mov    -0x20(%rbp),%rax
    11cf:	48 01 d0             	add    %rdx,%rax
    11d2:	48 8b 10             	mov    (%rax),%rdx
    11d5:	48 8b 05 64 2e 00 00 	mov    0x2e64(%rip),%rax        # 4040 <stdout@@GLIBC_2.2.5>
    11dc:	48 89 d6             	mov    %rdx,%rsi
    11df:	48 89 c7             	mov    %rax,%rdi
    11e2:	e8 5e ff ff ff       	callq  1145 <hello>
    11e7:	83 45 fc 01          	addl   $0x1,-0x4(%rbp)
    11eb:	8b 45 fc             	mov    -0x4(%rbp),%eax
    11ee:	3b 45 ec             	cmp    -0x14(%rbp),%eax
    11f1:	7c cb                	jl     11be <main+0x4a>
    11f3:	b8 00 00 00 00       	mov    $0x0,%eax
    11f8:	c9                   	leaveq 
    11f9:	c3                   	retq   
    11fa:	66 0f 1f 44 00 00    	nopw   0x0(%rax,%rax,1)

0000000000001200 <__libc_csu_init>:
    1200:	41 57                	push   %r15
jgordo39@remote07:~/i220a/submit/lab5/exercises$ ls -l hello
-rwxr-x--- 1 jgordo39 jgordo39 19384 Oct  7 10:33 hello
jgordo39@remote07:~/i220a/submit/lab5/exercises$ strip je[K[K[K hello
jgordo39@remote07:~/i220a/submit/lab5/exercises$ strip hellols -l[C[C[C[C[C[C
-rwxr-x--- 1 jgordo39 jgordo39 14416 Oct  7 10:36 hello
jgordo39@remote07:~/i220a/submit/lab5/exercises$ make clean[K[K[K[K[K[K[K[K[K[Kls
2  hello  hello.c  hello.objdump  hello.s  identify  Makefile
jgordo39@remote07:~/i220a/submit/lab5/exercises$ make clearn[K[Kn
rm -f hello hello.s *.objdump *~
jgordo39@remote07:~/i220a/submit/lab5/exercises$ ls
2  hello.c  identify  Makefile
jgordo39@remote07:~/i220a/submit/lab5/exercises$ cd ..
jgordo39@remote07:~/i220a/submit/lab5$ ls
exercises  lab5.LOG
jgordo39@remote07:~/i220a/submit/lab5$ cd[K[Kls
exercises  lab5.LOG
jgordo39@remote07:~/i220a/submit/lab5$ cd exercises
jgordo39@remote07:~/i220a/submit/lab5/exercises$ cd
jgordo39@remote07:~$ ls[K[Kcd exercisesls[Kcd exercises[K .
jgordo39@remote07:~$ cd-
bash: cd-: command not found
jgordo39@remote07:~$ cd -
/home/jgordo39
jgordo39@remote07:~$ cd =4[K[K-
/home/jgordo39
jgordo39@remote07:~$ cd =
bash: cd: =: No such file or directory
jgordo39@remote07:~$ cd [K -
/home/jgordo39
jgordo39@remote07:~$ ls
 cs120a0   Desktop     i220a	 Pictures      Public	   tmp
 cs220	   Documents   Maildir	'#.profile#'   temp	   Videos
 cs240	   Downloads   Music	 projects      Templates
jgordo39@remote07:~$ cd c[Ki220z[Ka
jgordo39@remote07:~/i220a$ ls
README.md  submit
jgordo39@remote07:~/i220a$ cd submit
jgordo39@remote07:~/i220a/submit$ cd ;a[K[Klab [K5
jgordo39@remote07:~/i220a/submit/lab5$ ;s
bash: syntax error near unexpected token `;'
jgordo39@remote07:~/i220a/submit/lab5$ ls
exercises  lab5.LOG
jgordo39@remote07:~/i220a/submit/lab5$ cd exercises
jgordo39@remote07:~/i220a/submit/lab5/exercises$ ;s
bash: syntax error near unexpected token `;'
jgordo39@remote07:~/i220a/submit/lab5/exercises$ ls
2  hello.c  identify  Makefile
jgordo39@remote07:~/i220a/submit/lab5/exercises$ cd idet[Kntify
jgordo39@remote07:~/i220a/submit/lab5/exercises/identify$ ls
identify.c  Makefile  mystery.h  mystery.o
jgordo39@remote07:~/i220a/submit/lab5/exercises/identify$ make
cc -g -Wall -std=c11   -c -o identify.o identify.c
cc   identify.o mystery.o   -o identify
jgordo39@remote07:~/i220a/submit/lab5/exercises/identify$ ./identify
5
mystery = 5 (0x5)
^[[A^[[B        23
mystery = 35 (0x23)
111111
mystery = 1118481 (0x111111)
1000
mystery = 4096 (0x1000)
1000000000000000000000000000000000000000000
mystery = 8388607 (0x7fffff)
11 00000
mystery = 1048576 (0x100000)
jgordo39@remote07:~/i220a/submit/lab5/exercises/identify$ objdump - [Kd identify > ind entify[K[K[K[K[Kdentify[K[K[K[K[K[K[K[Kidentify.obj du[K[K[Kdump
jgordo39@remote07:~/i220a/submit/lab5/exercises/identify$ ls
identify    identify.o		 Makefile   mystery.o
identify.c  indidentify.objdump  mystery.h
jgordo39@remote07:~/i220a/submit/lab5/exercises/identify$ emacs identify.objdump
[?1049h[22;0;0t[?12;25h[?1h=[H[2J[39d[K[?1l>[?12l[?25h[?1049l[23;0;0t[39;49m[?1049h[22;0;0t[?12;25h[?1h=[H[2J[38d[?25l[30m[47m-UUU:----F1  [39;49m[1m[30m[47m*scratch*   [0m[39;49m[30m[47m   All L1     (Fundamental) ------------------------------[39;49m
[A[2d[?12l[?25h[?12;25h[39d[?25lLoading /etc/emacs/site-start.d/00debian.el (source)...done[K[H
[?12l[?25h[?12;25h[39;33H[?25l50a2ps.el (source)...[K[H
[?12l[?25h[?12;25h[39;54H[?25ldone[H
[?12l[?25h[?12;25h[39;36H[?25lsymptote.el (source)...[H
[?12l[?25h[?12;25h[39;59H[?25ldone[H
[?12l[?25h[?12;25h[39;36H[?25lutoconf.el (source)...[K[H
[?12l[?25h[?12;25h[39;58H[?25ldone[H
[?12l[?25h[?12;25h[39;35H[?25lcmake-data.el (source)...[K[H
[?12l[?25h[?12;25h[39;60H[?25ldone[H
[?12l[?25h[?12;25h[39;35H[?25ldevhelp.el (source)...[K[H
[?12l[?25h[?12;25h[39;57H[?25ldone[H
[?12l[?25h[?12;25h[39;36H[?25lictionaries-common.el (source)...[H
[?12l[?25h[?12;25h[39;9H[?25ldebian-ispell...[K[H
[?12l[?25h[?12;25h[39;9H[?25l/var/cache/dictionaries-common/emacsen-ispell-default.el (source)...[H
[?12l[?25h[?12;25h[39;77H[?25ldone[H
[?12l[?25h[?12;25h[39;9H[?25ldebian-ispell...done[K[H
[?12l[?25h[?12;25h[39;9H[?25l/var/cache/dictionaries-common/emacsen-ispell-dicts.el (source)...[H
[?12l[?25h[?12;25h[39;75H[?25ldone[H
[?12l[?25h[?12;25h[39;10H[?25letc/emacs/site-start.d/50dictionaries-common[6P[H
[?12l[?25h[?12;25h[39;35H[?25lerlang-mode.el (source)...[K[H
[?12l[?25h[?12;25h[39;61H[?25ldone[H
[?12l[?25h[?12;25h[39;35H[?25lhaskell-mode.el (source)...[K[H
[?12l[?25h[?12;25h[39d[?25ll (source)...[K[H[7mFile Edit Options Buffers Tools Help                                               [0m[39;49m[27m
[A
[K
[K
[K
[K
[K
[K
[K
[K
[K
[K
[K
[K
[K
[K
[K
[K
[K
[K
[K
[K
[K
[K
[K
[K
[K
[K
[K
[K
[K
[K
[K
[K
[K
[K
[K
[30m[47m-UUU:----F1  [39;49m[1m[30m[47m*scratch*   [0m[39;49m[30m[47m   All L1     (Fundamental) ------------------------------[39;49m
[A
Loading /usr/share/emacs/site-lisp/elpa/haskell-mode-16.1/haskell-mode-autoloads.e\
[A[2d[?12l[?25h[?12;25h[39;14H[?25ldone[H
[?12l[?25h[?12;25h[39d[K[38;10H[?25letc/emacs/site-start.d/50haskell-mode.el (source)...done[K[H
[?12l[?25h[?12;25h[38;35H[?25llatex-cjk-common.el (source)...[H
[?12l[?25h[?12;25h[38;10H[?25lusr/share/emacs/site-lisp/latex-cjk-commo[9@n/cjk-enc[H
[?12l[?25h[?12;25h[38;75H[?25ldone[H
[?12l[?25h[?12;25h[38;10H[?25letc/emacs/site-start.d/50latex-cjk-common[9P[H
[?12l[?25h[?12;25h[38;45H[?25lthai.el (source)...[K[H
[?12l[?25h[?12;25h[38;64H[?25ldone[H
[?12l[?25h[?12;25h[38;35H[?25lpsvn.el (source)...[K[H
[?12l[?25h[?12;25h[38;54H[?25ldone[H
[?12l[?25h[?12;25h[38;36H[?25lython-docutils.el (source)...[H
[?12l[?25h[?12;25h[38;65H[?25ldone[H
[?12l[?25h[?12;25h[38;35H[?25ltcsh.el (source)...[K[H
[?12l[?25h[?12;25h[38;54H[?25ldone[H
[?12l[?25h[?12;25h[38;36H[?25lexlive-lang-english.el (source)...[H
[?12l[?25h[?12;25h[38;70H[?25ldone[H
[?12l[?25h[?12;25h[>0c[?2004h[?1004h[39d[?25lFor information about GNU Emacs and the GNU system, type C-h C-a.[K[H[7mFile Edit Options Buffers Tools Lisp-Interaction Help                              [0m[39;49m[27m
[A
[K
[K
[K
[K
[K
[K
[K
[K
[K
[K
[K
[K
[K
[K
[K
[K
[K
[K
[K
[K
[K
[K
[K
[K
[K
[K
[K
[K
[K
[K
[K
[K
[K
[K
[K
[K
[30m[48;5;250m-UUU:----F1  [39;49m[1m[30m[48;5;250m*scratch*   [0m[39;49m[30m[48;5;250m   All L1     (Lisp Interaction ElDoc) 10:43AM -----------[39;49m
[A[2d[?12l[?25h[?12;25h[39d[?25l(New file)[K[H
[?12l[?25h[?12;25h[39d[?25l(New file)[K[H[7mFile Edit Options Buffers Tools Help                                               [0m[39;49m[27m
[A
[K
[K
[K
[K
[K
[K
[K
[K
[K
[K
[K
[K
[K
[K
[K
[K
[K
[K
[K
[K
[K
[K
[K
[K
[K
[K
[K
[K
[K
[K
[K
[K
[K
[K
[K
[K
[30m[48;5;250m-UUU:----F1  [39;49m[1m[30m[48;5;250midentify.objdump[0m[39;49m[30m[48;5;250m   All L1     (Fundamental) 10:43AM ------------------[39;49m
[A[2d[?12l[?25h[?12;25h[39d[K[2d[39d[K[?1004l[?2004l[?1l>[?12l[?25h[?1049l[23;0;0t[39;49mjgordo39@remote07:~/i220a/submit/lab5/exercises/identify$ emacs identify.objdumpls[Kobjdump -d identify > indidentify.objdump[A[C[C[C[C[C[C[C[C[C[C[C[C[C[C[C[C[C[C[C[C[C[C[C[C[C[C[C[C[C[C[C[C[C[C[C[C[C[C[C[C[C[C[C[C[C[C[C[C[C[C[C[C[C[C[C[C[C[C[C[C[C[C[C[C[C[C[C[C[C[C[C[C[C[C[C[C[C[C[C[C[C[Cid[1Pentify.objdump[A[C[C[C[C[C[C[C[C[C[C[C[C[C[C[C[C[C[C[C[C[C[C[C[C[C[C[C[C[C[C[C[C[C[C[C[C[C[C[C[C[C[C[C[C[C[C[C[C[C[C[C[C[C[C[C[C[C[C[C[C[C[C[C[C[C[C[Cide[1Pntify.objdump[A[C[C[C[C[C[C[C[C[C[C[C[C[C[C[C[C[C[C[C[C[C[C[C[C[C[C[C[C[C[C[C[C[C[C[C[C[C[C[C[C[C[C[C[C[C[C[C[C[C[C[C[C[C[C[C[C[C[C[C[C[C[C[C[C[C[C[Cden[1Ptify.objdump[A[C[C[C[C[C[C[C[C[C[C[C[C[C[C[C[C[C[C[C[C[C[C[C[C[C[C[C[C[C[C[C[C[C[C[C[C[C[C[C[C[C[C[C[C[C[C[C[C[C[C[C[C[C[C[C[C[C[C[C[C[C[C[C[C[C[C[C

jgordo39@remote07:~/i220a/submit/lab5/exercises/identify$ ls
identify    identify.o	      indidentify.objdump  mystery.h
identify.c  identify.objdump  Makefile		   mystery.o
jgordo39@remote07:~/i220a/submit/lab5/exercises/identify$ make clean
make: *** No rule to make target 'clean'.  Stop.
jgordo39@remote07:~/i220a/submit/lab5/exercises/identify$ rm indidentify.objdump
jgordo39@remote07:~/i220a/submit/lab5/exercises/identify$ ;s
bash: syntax error near unexpected token `;'
jgordo39@remote07:~/i220a/submit/lab5/exercises/identify$ ls
identify  identify.c  identify.o  identify.objdump  Makefile  mystery.h  mystery.o
jgordo39@remote07:~/i220a/submit/lab5/exercises/identify$ a[Keam[K[Kmacs identify.objdump
[?1049h[22;0;0t[?12;25h[?1h=[H[2J[39d[K[?1l>[?12l[?25h[?1049l[23;0;0t[39;49m[?1049h[22;0;0t[?12;25h[?1h=[H[2J[38d[?25l[30m[47m-UUU:----F1  [39;49m[1m[30m[47m*scratch*   [0m[39;49m[30m[47m   All L1     (Fundamental) ------------------------------[39;49m
[A[2d[?12l[?25h[?12;25h[39d[?25lLoading /etc/emacs/site-start.d/00debian.el (source)...done[K[H
[?12l[?25h[?12;25h[39;33H[?25l50a2ps.el (source)...[K[H
[?12l[?25h[?12;25h[39;54H[?25ldone[H
[?12l[?25h[?12;25h[39;36H[?25lsymptote.el (source)...[H
[?12l[?25h[?12;25h[39;59H[?25ldone[H
[?12l[?25h[?12;25h[39;36H[?25lutoconf.el (source)...[K[H
[?12l[?25h[?12;25h[39;58H[?25ldone[H
[?12l[?25h[?12;25h[39;35H[?25lcmake-data.el (source)...[K[H
[?12l[?25h[?12;25h[39;60H[?25ldone[H
[?12l[?25h[?12;25h[39;35H[?25ldevhelp.el (source)...[K[H
[?12l[?25h[?12;25h[39;57H[?25ldone[H
[?12l[?25h[?12;25h[39;36H[?25lictionaries-common.el (source)...[H
[?12l[?25h[?12;25h[39;9H[?25ldebian-ispell...[K[H
[?12l[?25h[?12;25h[39;9H[?25l/var/cache/dictionaries-common/emacsen-ispell-default.el (source)...[H
[?12l[?25h[?12;25h[39;77H[?25ldone[H
[?12l[?25h[?12;25h[39;9H[?25ldebian-ispell...done[K[H
[?12l[?25h[?12;25h[39;9H[?25l/var/cache/dictionaries-common/emacsen-ispell-dicts.el (source)...[H
[?12l[?25h[?12;25h[39;75H[?25ldone[H
[?12l[?25h[?12;25h[39;10H[?25letc/emacs/site-start.d/50dictionaries-common[6P[H
[?12l[?25h[?12;25h[39;35H[?25lerlang-mode.el (source)...[K[H
[?12l[?25h[?12;25h[39;61H[?25ldone[H
[?12l[?25h[?12;25h[39;35H[?25lhaskell-mode.el (source)...[K[H
[?12l[?25h[?12;25h[39d[?25ll (source)...[K[H[7mFile Edit Options Buffers Tools Help                                               [0m[39;49m[27m
[A
[K
[K
[K
[K
[K
[K
[K
[K
[K
[K
[K
[K
[K
[K
[K
[K
[K
[K
[K
[K
[K
[K
[K
[K
[K
[K
[K
[K
[K
[K
[K
[K
[K
[K
[K
[30m[47m-UUU:----F1  [39;49m[1m[30m[47m*scratch*   [0m[39;49m[30m[47m   All L1     (Fundamental) ------------------------------[39;49m
[A
Loading /usr/share/emacs/site-lisp/elpa/haskell-mode-16.1/haskell-mode-autoloads.e\
[A[2d[?12l[?25h[?12;25h[39;14H[?25ldone[H
[?12l[?25h[?12;25h[39d[K[38;10H[?25letc/emacs/site-start.d/50haskell-mode.el (source)...done[K[H
[?12l[?25h[?12;25h[38;35H[?25llatex-cjk-common.el (source)...[H
[?12l[?25h[?12;25h[38;10H[?25lusr/share/emacs/site-lisp/latex-cjk-commo[9@n/cjk-enc[H
[?12l[?25h[?12;25h[38;75H[?25ldone[H
[?12l[?25h[?12;25h[38;10H[?25letc/emacs/site-start.d/50latex-cjk-common[9P[H
[?12l[?25h[?12;25h[38;45H[?25lthai.el (source)...[K[H
[?12l[?25h[?12;25h[38;64H[?25ldone[H
[?12l[?25h[?12;25h[38;35H[?25lpsvn.el (source)...[K[H
[?12l[?25h[?12;25h[38;54H[?25ldone[H
[?12l[?25h[?12;25h[38;36H[?25lython-docutils.el (source)...[H
[?12l[?25h[?12;25h[38;65H[?25ldone[H
[?12l[?25h[?12;25h[38;35H[?25ltcsh.el (source)...[K[H
[?12l[?25h[?12;25h[38;54H[?25ldone[H
[?12l[?25h[?12;25h[38;36H[?25lexlive-lang-english.el (source)...[H
[?12l[?25h[?12;25h[38;70H[?25ldone[H
[?12l[?25h[?12;25h[>0c[?2004h[?1004h[39d[?25lFor information about GNU Emacs and the GNU system, type C-h C-a.[K[H[7mFile Edit Options Buffers Tools Lisp-Interaction Help                              [0m[39;49m[27m
[A
[K
[K
[K
[K
[K
[K
[K
[K
[K
[K
[K
[K
[K
[K
[K
[K
[K
[K
[K
[K
[K
[K
[K
[K
[K
[K
[K
[K
[K
[K
[K
[K
[K
[K
[K
[K
[30m[48;5;250m-UUU:----F1  [39;49m[1m[30m[48;5;250m*scratch*   [0m[39;49m[30m[48;5;250m   All L1     (Lisp Interaction ElDoc) 10:44AM 0.10 ------[39;49m
[A[2d[?12l[?25h[?12;25h[39d[?25lFor information about GNU Emacs and the GNU system, type C-h C-a.[K[H[7mFile Edit Options Buffers Tools Help                                               [0m[39;49m[27m
[A
[K
identify:     file format elf64-x86-64[K
[K
[K
Disassembly of section .init:[K
[K
0000000000001000 <_init>:[K
    1000:       48 83 ec 08             sub    $0x8,%rsp[K
    1004:       48 8b 05 dd 2f 00 00    mov    0x2fdd(%rip),%rax        # 3fe8 <__\
[A
gmon_start__>[K
    100b:       48 85 c0                test   %rax,%rax[K
    100e:       74 02                   je     1012 <_init+0x12>[K
    1010:       ff d0                   callq  *%rax[K
    1012:       48 83 c4 08             add    $0x8,%rsp[K
    1016:       c3                      retq[K
[K
Disassembly of section .plt:[K
[K
0000000000001020 <.plt>:[K
    1020:       ff 35 e2 2f 00 00       pushq  0x2fe2(%rip)        # 4008 <_GLOBAL\
[A
_OFFSET_TABLE_+0x8>[K
    1026:       ff 25 e4 2f 00 00       jmpq   *0x2fe4(%rip)        # 4010 <_GLOBA\
[A
L_OFFSET_TABLE_+0x10>[K
    102c:       0f 1f 40 00             nopl   0x0(%rax)[K
[K
0000000000001030 <printf@plt>:[K
    1030:       ff 25 e2 2f 00 00       jmpq   *0x2fe2(%rip)        # 4018 <printf\
[A
@GLIBC_2.2.5>[K
    1036:       68 00 00 00 00          pushq  $0x0[K
    103b:       e9 e0 ff ff ff          jmpq   1020 <.plt>[K
[K
0000000000001040 <__isoc99_scanf@plt>:[K
    1040:       ff 25 da 2f 00 00       jmpq   *0x2fda(%rip)        # 4020 <__isoc\
[A
99_scanf@GLIBC_2.7>[K
    1046:       68 01 00 00 00          pushq  $0x1[K
    104b:       e9 d0 ff ff ff          jmpq   1020 <.plt>[K
[30m[48;5;250m-UU-:----F1  [39;49m[1m[30m[48;5;250midentify.objdump[0m[39;49m[30m[48;5;250m   Top L1     (Fundamental) 10:44AM 0.10 -------------[39;49m
[A[2d[?12l[?25h[?12;25h[39d[K[2d[38;38H[?25l[30m[48;5;250m5[39;49m[6;1H[?12l[?25h[?12;25h[38;38H[?25l[30m[48;5;250m9[39;49m[10;1H[?12l[?25h[?12;25h[38;38H[?25l[30m[48;5;250m12[39;49m[14;1H[?12l[?25h[?12;25h[38;39H[?25l[30m[48;5;250m6[39;49m[18;1H[?12l[?25h[?12;25h[38;39H[?25l[30m[48;5;250m9[39;49m[22;1H[?12l[?25h[?12;25h[38;38H[?25l[30m[48;5;250m22[39;49m[26;1H[?12l[?25h[?12;25h[38;62H[?25l[30m[48;5;250m5AM -----[39;49m[26;1H[?12l[?25h[?12;25h[38;39H[?25l[30m[48;5;250m5[39;49m[30;1H[?12l[?25h[?12;25h[38;39H[?25l[30m[48;5;250m9[39;49m[34;1H[?12l[?25h[?12;25h[1;37r[2;1H[18M[1;39r[20;1H[K
[?25lDisassembly of section .plt.got:[K
[K
0000000000001050 <__cxa_finalize@plt>:[K
    1050:       ff 25 a2 2f 00 00       jmpq   *0x2fa2(%rip)        # 3ff8 <__cxa_\
[A
finalize@GLIBC_2.2.5>[K
    1056:       66 90                   xchg   %ax,%ax[K
[K
Disassembly of section .text:[K
[K
0000000000001060 <_start>:[K
    1060:       31 ed                   xor    %ebp,%ebp[K
    1062:       49 89 d1                mov    %rdx,%r9[K
    1065:       5e                      pop    %rsi[K
    1066:       48 89 e2                mov    %rsp,%rdx[K
    1069:       48 83 e4 f0             and    $0xfffffffffffffff0,%rsp[K
    106d:       50                      push   %rax[K
    106e:       54                      push   %rsp[K
				[30m[48;5;250m 6% L32[39;49m[20;1H[?12l[?25h[?12;25h[38;39H[?25l[30m[48;5;250m6[39;49m[24;1H[?12l[?25h[?12;25h[38;39H[?25l[30m[48;5;250m9[39;49m[28;1H[?12l[?25h[?12;25h[38;38H[?25l[30m[48;5;250m43[39;49m[32;1H[?12l[?25h[?12;25h[38;39H[?25l[30m[48;5;250m7[39;49m[36;1H[?12l[?25h[?12;25h[1;37r[3;1H[20M[1;39r[2;1H[K[18d[?25l    106f:       4c 8d 05 9a 01 00 00    lea    0x19a(%rip),%r8        # 1210 <__li\
[A
bc_csu_fini>[K
    1076:       48 8d 0d 33 01 00 00    lea    0x133(%rip),%rcx        # 11b0 <__l\
[A
ibc_csu_init>[K
    107d:       48 8d 3d c1 00 00 00    lea    0xc1(%rip),%rdi        # 1145 <main\
[A
>[K
    1084:       ff 15 56 2f 00 00       callq  *0x2f56(%rip)        # 3fe0 <__libc\
[A
_start_main@GLIBC_2.2.5>[K
    108a:       f4                      hlt[K
    108b:       0f 1f 44 00 00          nopl   0x0(%rax,%rax,1)[K
[K
0000000000001090 <deregister_tm_clones>:[K
    1090:       48 8d 3d a1 2f 00 00    lea    0x2fa1(%rip),%rdi        # 4038 <__\
[A
TMC_END__>[K
    1097:       48 8d 05 9a 2f 00 00    lea    0x2f9a(%rip),%rax        # 4038 <__\
[A
TMC_END__>[K
    109e:       48 39 f8                cmp    %rdi,%rax[K
    10a1:       74 15                   je     10b8 <deregister_tm_clones+0x28>[K
    10a3:       48 8b 05 2e 2f 00 00    mov    0x2f2e(%rip),%rax        # 3fd8 <_I\
[A
TM_deregisterTMCloneTable>[K
	[30m[48;5;250m14% L50[39;49m[20;1H[?12l[?25h[?12;25h[38;38H[?25l[30m[48;5;250m47[39;49m[16;1H[?12l[?25h[?12;25h[38;39H[?25l[30m[48;5;250m3[39;49m[12;1H[?12l[?25h[?12;25h[38;38H[?25l[30m[48;5;250m39[39;49m[8;1H[?12l[?25h[?12;25h[38;39H[?25l[30m[48;5;250m6[39;49m[4;1H[?12l[?25h[?12;25h[1;37r[3;1H[20L[1;39r[2;1H[?25l0000000000001020 <.plt>:
    1020:       ff 35 e2 2f 00 00       pushq  0x2fe2(%rip)        # 4008 <_GLOBAL\
[A
_OFFSET_TABLE_+0x8>[K
    1026:       ff 25 e4 2f 00 00       jmpq   *0x2fe4(%rip)        # 4010 <_GLOBA\
[A
L_OFFSET_TABLE_+0x10>[K
    102c:       0f 1f 40 00             nopl   0x0(%rax)[K
[K
0000000000001030 <printf@plt>:[K
    1030:       ff 25 e2 2f 00 00       jmpq   *0x2fe2(%rip)        # 4018 <printf\
[A
@GLIBC_2.2.5>[K
    1036:       68 00 00 00 00          pushq  $0x0[K
    103b:       e9 e0 ff ff ff          jmpq   1020 <.plt>[K
[K
0000000000001040 <__isoc99_scanf@plt>:[K
    1040:       ff 25 da 2f 00 00       jmpq   *0x2fda(%rip)        # 4020 <__isoc\
[A
99_scanf@GLIBC_2.7>[K
    1046:       68 01 00 00 00          pushq  $0x1[K
    104b:       e9 d0 ff ff ff          jmpq   1020 <.plt>[K
[K
Disassembly of section .plt.got:[K
[K[38;33H[30m[48;5;250m 6% L32[39;49m[20;1H[?12l[?25h[?12;25h[38;38H[?25l[30m[48;5;250m29[39;49m[16;1H[?12l[?25h[?12;25h[38;39H[?25l[30m[48;5;250m5[39;49m[12;1H[?12l[?25h[?12;25h[38;39H[?25l[30m[48;5;250m2[39;49m[8;1H[?12l[?25h[?12;25h[38;38H[?25l[30m[48;5;250m19[39;49m[4;1H[?12l[?25h[?12;25h[1;37r[2;1H[18L[1;39r[2;1H[K
[?25lidentify:     file format elf64-x86-64[K
[K
[K
Disassembly of section .init:[K
[K
0000000000001000 <_init>:[K
    1000:       48 83 ec 08             sub    $0x8,%rsp[K
    1004:       48 8b 05 dd 2f 00 00    mov    0x2fdd(%rip),%rax        # 3fe8 <__\
[A
gmon_start__>[K
    100b:       48 85 c0                test   %rax,%rax[K
    100e:       74 02                   je     1012 <_init+0x12>[K
    1010:       ff d0                   callq  *%rax[K
    1012:       48 83 c4 08             add    $0x8,%rsp[K
    1016:       c3                      retq[K
[K
Disassembly of section .plt:[K
[K[38;33H[30m[48;5;250mTop L16[39;49m[18;1H[?12l[?25h[?12;25h[38;39H[?25l[30m[48;5;250m2[39;49m[14;1H[?12l[?25h[?12;25h[38;38H[?25l[30m[48;5;250m9 [39;49m[10;1H[?12l[?25h[?12;25h[38;38H[?25l[30m[48;5;250m5[39;49m[6;1H[?12l[?25h[?12;25h[38;38H[?25l[30m[48;5;250m1[39;49m[H
[?12l[?25h[?12;25h[39d[?25lBeginning of buffer[H
[?12l[?25h[?12;25h[39d[K[38;38H[?25l[30m[48;5;250m5[39;49m[6;1H[?12l[?25h[?12;25h[38;38H[?25l[30m[48;5;250m9[39;49m[10;1H[?12l[?25h[?12;25h[38;38H[?25l[30m[48;5;250m12[39;49m[14;1H[?12l[?25h[?12;25h[38;39H[?25l[30m[48;5;250m6[39;49m[18;1H[?12l[?25h[?12;25h[38;39H[?25l[30m[48;5;250m9[39;49m[22;1H[?12l[?25h[?12;25h[38;38H[?25l[30m[48;5;250m22[39;49m[26;1H[?12l[?25h[?12;25h[38;39H[?25l[30m[48;5;250m5[39;49m[30;1H[?12l[?25h[?12;25h[38;39H[?25l[30m[48;5;250m9[39;49m[34;1H[?12l[?25h[?12;25h
[38;38H[?25l[30m[48;5;250m30[39;49m[36;1H[?12l[?25h[?12;25h[38;39H[?25l[30m[48;5;250m1[39;49m[A[?12l[?25h[?12;25h[1;37r[2;1H[18M[1;39r[20;1H[K
[?25lDisassembly of section .plt.got:[K
[K
0000000000001050 <__cxa_finalize@plt>:[K
    1050:       ff 25 a2 2f 00 00       jmpq   *0x2fa2(%rip)        # 3ff8 <__cxa_\
[A
finalize@GLIBC_2.2.5>[K
    1056:       66 90                   xchg   %ax,%ax[K
[K
Disassembly of section .text:[K
[K
0000000000001060 <_start>:[K
    1060:       31 ed                   xor    %ebp,%ebp[K
    1062:       49 89 d1                mov    %rdx,%r9[K
    1065:       5e                      pop    %rsi[K
    1066:       48 89 e2                mov    %rsp,%rdx[K
    1069:       48 83 e4 f0             and    $0xfffffffffffffff0,%rsp[K
    106d:       50                      push   %rax[K
    106e:       54                      push   %rsp[K
				[30m[48;5;250m 6% L32[39;49m[20;1H[?12l[?25h[?12;25h[38;39H[?25l[30m[48;5;250m3[39;49m[21;1H[?12l[?25h[?12;25h[38;39H[?25l[30m[48;5;250m4[39;49m[22;1H[?12l[?25h[?12;25h[38;39H[?25l[30m[48;5;250m5[39;49m[23;1H[?12l[?25h[?12;25h[38;39H[?25l[30m[48;5;250m6[39;49m[24;1H[?12l[?25h[?12;25h
[38;39H[?25l[30m[48;5;250m7[39;49m[26;1H[?12l[?25h[?12;25h[38;39H[?25l[30m[48;5;250m8[39;49m[27;1H[?12l[?25h[?12;25h[38;39H[?25l[30m[48;5;250m9[39;49m[28;1H[?12l[?25h[?12;25h[38;38H[?25l[30m[48;5;250m40[39;49m[29;1H[?12l[?25h[?12;25h[38;39H[?25l[30m[48;5;250m1[39;49m[30;1H[?12l[?25h[?12;25h[38;39H[?25l[30m[48;5;250m2[39;49m[31;1H[?12l[?25h[?12;25h[38;39H[?25l[30m[48;5;250m3[39;49m[32;1H[?12l[?25h[?12;25h[38;39H[?25l[30m[48;5;250m4[39;49m[33;1H[?12l[?25h[?12;25h[38;39H[?25l[30m[48;5;250m5[39;49m[34;1H[?12l[?25h[?12;25h[38;39H[?25l[30m[48;5;250m6[39;49m[35;1H[?12l[?25h[?12;25h[38;39H[?25l[30m[48;5;250m7[39;49m[36;1H[?12l[?25h[?12;25h[38;39H[?25l[30m[48;5;250m8[39;49m[A[?12l[?25h[?12;25h[1;37r[3;1H[18M[1;39r[2;1H[K[20d[?25l    106f:       4c 8d 05 9a 01 00 00    lea    0x19a(%rip),%r8        # 1210 <__li\
[A
bc_csu_fini>[K
    1076:       48 8d 0d 33 01 00 00    lea    0x133(%rip),%rcx        # 11b0 <__l\
[A
ibc_csu_init>[K
    107d:       48 8d 3d c1 00 00 00    lea    0xc1(%rip),%rdi        # 1145 <main\
[A
>[K
    1084:       ff 15 56 2f 00 00       callq  *0x2f56(%rip)        # 3fe0 <__libc\
[A
_start_main@GLIBC_2.2.5>[K
    108a:       f4                      hlt[K
    108b:       0f 1f 44 00 00          nopl   0x0(%rax,%rax,1)[K
[K
0000000000001090 <deregister_tm_clones>:[K
    1090:       48 8d 3d a1 2f 00 00    lea    0x2fa1(%rip),%rdi        # 4038 <__\
[A
TMC_END__>[K
    1097:       48 8d 05 9a 2f 00 00    lea    0x2f9a(%rip),%rax        # 4038 <__\
[A
TMC_END__>[K
    109e:       48 39 f8                cmp    %rdi,%rax[K
    10a1:       74 15                   je     10b8 <deregister_tm_clones+0x28>[K
				[30m[48;5;250m14% L49[39;49m[20;1H[?12l[?25h[?12;25h
[38;38H[?25l[30m[48;5;250m50[39;49m[22;1H[?12l[?25h[?12;25h
[38;39H[?25l[30m[48;5;250m1[39;49m[24;1H[?12l[?25h[?12;25h
[38;39H[?25l[30m[48;5;250m2[39;49m[26;1H[?12l[?25h[?12;25h
[38;39H[?25l[30m[48;5;250m3[39;49m[28;1H[?12l[?25h[?12;25h[38;39H[?25l[30m[48;5;250m4[39;49m[29;1H[?12l[?25h[?12;25h[38;39H[?25l[30m[48;5;250m5[39;49m[30;1H[?12l[?25h[?12;25h[38;39H[?25l[30m[48;5;250m6[39;49m[31;1H[?12l[?25h[?12;25h[38;39H[?25l[30m[48;5;250m7[39;49m[32;1H[?12l[?25h[?12;25h
[38;39H[?25l[30m[48;5;250m8[39;49m[34;1H[?12l[?25h[?12;25h
[38;39H[?25l[30m[48;5;250m9[39;49m[36;1H[?12l[?25h[?12;25h[38;38H[?25l[30m[48;5;250m60[39;49m[A[?12l[?25h[?12;25h[1;37r[2;1H[18M[1;39r[20;1H[?25l    10a3:       48 8b 05 2e 2f 00 00    mov    0x2f2e(%rip),%rax        # 3fd8 <_I\
[A
TM_deregisterTMCloneTable>[K
    10aa:       48 85 c0                test   %rax,%rax[K
    10ad:       74 09                   je     10b8 <deregister_tm_clones+0x28>[K
    10af:       ff e0                   jmpq   *%rax[K
    10b1:       0f 1f 80 00 00 00 00    nopl   0x0(%rax)[K
    10b8:       c3                      retq[K
    10b9:       0f 1f 80 00 00 00 00    nopl   0x0(%rax)[K
[K
00000000000010c0 <register_tm_clones>:[K
    10c0:       48 8d 3d 71 2f 00 00    lea    0x2f71(%rip),%rdi        # 4038 <__\
[A
TMC_END__>[K
    10c7:       48 8d 35 6a 2f 00 00    lea    0x2f6a(%rip),%rsi        # 4038 <__\
[A
TMC_END__>[K
    10ce:       48 29 fe                sub    %rdi,%rsi[K
    10d1:       48 c1 fe 03             sar    $0x3,%rsi[K
    10d5:       48 89 f0                mov    %rsi,%rax[K
    10d8:       48 c1 e8 3f             shr    $0x3f,%rax[K
				[30m[48;5;250m21% L61[39;49m[20;1H[?12l[?25h[?12;25h
[38;39H[?25l[30m[48;5;250m2[39;49m[22;1H[?12l[?25h[?12;25h[38;39H[?25l[30m[48;5;250m3[39;49m[23;1H[?12l[?25h[?12;25h[38;39H[?25l[30m[48;5;250m4[39;49m[24;1H[?12l[?25h[?12;25h[38;39H[?25l[30m[48;5;250m5[39;49m[25;1H[?12l[?25h[?12;25h[38;39H[?25l[30m[48;5;250m6[39;49m[26;1H[?12l[?25h[?12;25h[38;39H[?25l[30m[48;5;250m7[39;49m[27;1H[?12l[?25h[?12;25h[38;39H[?25l[30m[48;5;250m8[39;49m[28;1H[?12l[?25h[?12;25h[38;39H[?25l[30m[48;5;250m9[39;49m[29;1H[?12l[?25h[?12;25h[38;38H[?25l[30m[48;5;250m70[39;49m[30;1H[?12l[?25h[?12;25h
[38;39H[?25l[30m[48;5;250m1[39;49m[32;1H[?12l[?25h[?12;25h
[38;39H[?25l[30m[48;5;250m2[39;49m[34;1H[?12l[?25h[?12;25h[38;39H[?25l[30m[48;5;250m3[39;49m[35;1H[?12l[?25h[?12;25h[38;39H[?25l[30m[48;5;250m4[39;49m[36;1H[?12l[?25h[?12;25h[38;39H[?25l[30m[48;5;250m5[39;49m[A[?12l[?25h[?12;25h[1;37r[2;1H[18M[1;39r[20;1H[?25l    10dc:       48 01 c6                add    %rax,%rsi[K
    10df:       48 d1 fe                sar    %rsi[K
    10e2:       74 14                   je     10f8 <register_tm_clones+0x38>[K
    10e4:       48 8b 05 05 2f 00 00    mov    0x2f05(%rip),%rax        # 3ff0 <_I\
[A
TM_registerTMCloneTable>[K
    10eb:       48 85 c0                test   %rax,%rax[K
    10ee:       74 08                   je     10f8 <register_tm_clones+0x38>[K
    10f0:       ff e0                   jmpq   *%rax[K
    10f2:       66 0f 1f 44 00 00       nopw   0x0(%rax,%rax,1)[K
    10f8:       c3                      retq[K
    10f9:       0f 1f 80 00 00 00 00    nopl   0x0(%rax)[K
[K
0000000000001100 <__do_global_dtors_aux>:[K
    1100:       80 3d 31 2f 00 00 00    cmpb   $0x0,0x2f31(%rip)        # 4038 <__\
[A
TMC_END__>[K
    1107:       75 2f                   jne    1138 <__do_global_dtors_aux+0x38>[K
    1109:       55                      push   %rbp[K
    110a:       48 83 3d e6 2e 00 00    cmpq   $0x0,0x2ee6(%rip)        # 3ff8 <__\
[A
				[30m[48;5;250m30% L76[39;49m[20;1H[?12l[?25h[?12;25h[38;39H[?25l[30m[48;5;250m7[39;49m[21;1H[?12l[?25h[?12;25h[38;39H[?25l[30m[48;5;250m8[39;49m[22;1H[?12l[?25h[?12;25h[38;39H[?25l[30m[48;5;250m9[39;49m[23;1H[?12l[?25h[?12;25h
[38;38H[?25l[30m[48;5;250m80[39;49m[25;1H[?12l[?25h[?12;25h[38;39H[?25l[30m[48;5;250m1[39;49m[26;1H[?12l[?25h[?12;25h[38;39H[?25l[30m[48;5;250m2[39;49m[27;1H[?12l[?25h[?12;25h[38;39H[?25l[30m[48;5;250m3[39;49m[28;1H[?12l[?25h[?12;25h[38;39H[?25l[30m[48;5;250m4[39;49m[29;1H[?12l[?25h[?12;25h[38;39H[?25l[30m[48;5;250m5[39;49m[30;1H[?12l[?25h[?12;25h[38;39H[?25l[30m[48;5;250m6[39;49m[31;1H[?12l[?25h[?12;25h[38;39H[?25l[30m[48;5;250m7[39;49m[32;1H[?12l[?25h[?12;25h[38;39H[?25l[30m[48;5;250m8[39;49m[33;1H[?12l[?25h[?12;25h
[38;39H[?25l[30m[48;5;250m9[39;49m[35;1H[?12l[?25h[?12;25h[38;38H[?25l[30m[48;5;250m90[39;49m[36;1H[?12l[?25h[?12;25h[38;39H[?25l[30m[48;5;250m1[39;49m[A[?12l[?25h[?12;25h[1;37r[2;1H[18M[1;39r[20;1H[?25lcxa_finalize@GLIBC_2.2.5>[K
    1111:       00[K
    1112:       48 89 e5                mov    %rsp,%rbp[K
    1115:       74 0c                   je     1123 <__do_global_dtors_aux+0x23>[K
    1117:       48 8b 3d 12 2f 00 00    mov    0x2f12(%rip),%rdi        # 4030 <__\
[A
dso_handle>[K
    111e:       e8 2d ff ff ff          callq  1050 <__cxa_finalize@plt>[K
    1123:       e8 68 ff ff ff          callq  1090 <deregister_tm_clones>[K
    1128:       c6 05 09 2f 00 00 01    movb   $0x1,0x2f09(%rip)        # 4038 <__\
[A
TMC_END__>[K
    112f:       5d                      pop    %rbp[K
    1130:       c3                      retq[K
    1131:       0f 1f 80 00 00 00 00    nopl   0x0(%rax)[K
    1138:       c3                      retq[K
    1139:       0f 1f 80 00 00 00 00    nopl   0x0(%rax)[K
[K
0000000000001140 <frame_dummy>:[K
    1140:       e9 7b ff ff ff          jmpq   10c0 <register_tm_clones>[K[38;34H[30m[48;5;250m9[39;49m[20;1H[?12l[?25h[?12;25h[38;39H[?25l[30m[48;5;250m2[39;49m[21;1H[?12l[?25h[?12;25h[38;39H[?25l[30m[48;5;250m3[39;49m[22;1H[?12l[?25h[?12;25h[38;39H[?25l[30m[48;5;250m4[39;49m[23;1H[?12l[?25h[?12;25h[38;39H[?25l[30m[48;5;250m5[39;49m[24;1H[?12l[?25h[?12;25h
[38;39H[?25l[30m[48;5;250m6[39;49m[26;1H[?12l[?25h[?12;25h[38;39H[?25l[30m[48;5;250m7[39;49m[27;1H[?12l[?25h[?12;25h[38;39H[?25l[30m[48;5;250m8[39;49m[28;1H[?12l[?25h[?12;25h
[38;39H[?25l[30m[48;5;250m9[39;49m[30;1H[?12l[?25h[?12;25h[38;38H[?25l[30m[48;5;250m100[39;49m[31;1H[?12l[?25h[?12;25h[38;40H[?25l[30m[48;5;250m1[39;49m[32;1H[?12l[?25h[?12;25h[38;40H[?25l[30m[48;5;250m2[39;49m[33;1H[?12l[?25h[?12;25h[38;40H[?25l[30m[48;5;250m3[39;49m[34;1H[?12l[?25h[?12;25h[38;40H[?25l[30m[48;5;250m4[39;49m[35;1H[?12l[?25h[?12;25h[38;40H[?25l[30m[48;5;250m5[39;49m[36;1H[?12l[?25h[?12;25h[38;40H[?25l[30m[48;5;250m6[39;49m[A[?12l[?25h[?12;25h[1;37r[2;1H[18M[1;39r[20;1H[K
[?25l0000000000001145 <main>:[K
    1145:       55                      push   %rbp[K
    1146:       48 89 e5                mov    %rsp,%rbp[K
    1149:       48 83 ec 10             sub    $0x10,%rsp[K
    114d:       48 8d 45 f8             lea    -0x8(%rbp),%rax[K
    1151:       48 89 c6                mov    %rax,%rsi[K
    1154:       48 8d 3d a9 0e 00 00    lea    0xea9(%rip),%rdi        # 2004 <_IO\
[A
_stdin_used+0x4>[K
    115b:       b8 00 00 00 00          mov    $0x0,%eax[K
    1160:       e8 db fe ff ff          callq  1040 <__isoc99_scanf@plt>[K
    1165:       83 f8 01                cmp    $0x1,%eax[K
    1168:       74 07                   je     1171 <main+0x2c>[K
    116a:       b8 00 00 00 00          mov    $0x0,%eax[K
    116f:       eb 28                   jmp    1199 <main+0x54>[K
    1171:       8b 45 f8                mov    -0x8(%rbp),%eax[K
    1174:       89 c7                   mov    %eax,%edi[K
    1176:       e8 21 00 00 00          callq  119c <mystery>[K
				[30m[48;5;250m49% L107[39;49m[20;1H[?12l[?25h[?12;25h[38;40H[?25l[30m[48;5;250m8[39;49m[21;1H[?12l[?25h[?12;25h[38;40H[?25l[30m[48;5;250m9[39;49m[22;1H[?12l[?25h[?12;25h[38;39H[?25l[30m[48;5;250m10[39;49m[23;1H[?12l[?25h[?12;25h[38;40H[?25l[30m[48;5;250m1[39;49m[24;1H[?12l[?25h[?12;25h[38;40H[?25l[30m[48;5;250m2[39;49m[25;1H[?12l[?25h[?12;25h[38;40H[?25l[30m[48;5;250m3[39;49m[26;1H[?12l[?25h[?12;25h[38;40H[?25l[30m[48;5;250m4[39;49m[27;1H[?12l[?25h[?12;25h
[38;40H[?25l[30m[48;5;250m5[39;49m[29;1H[?12l[?25h[?12;25h[38;40H[?25l[30m[48;5;250m6[39;49m[30;1H[?12l[?25h[?12;25h[38;40H[?25l[30m[48;5;250m7[39;49m[31;1H[?12l[?25h[?12;25h[38;40H[?25l[30m[48;5;250m8[39;49m[32;1H[?12l[?25h[?12;25h[38;40H[?25l[30m[48;5;250m9[39;49m[33;1H[?12l[?25h[?12;25h[38;39H[?25l[30m[48;5;250m20[39;49m[34;1H[?12l[?25h[?12;25h[38;40H[?25l[30m[48;5;250m3[39;49m[A[?12l[?25h[?12;25h[1;37r[3;1H[18M[1;39r[2;1H[K[20d[?25l    117b:       89 45 fc                mov    %eax,-0x4(%rbp)[K
    117e:       8b 55 fc                mov    -0x4(%rbp),%edx[K
    1181:       8b 45 fc                mov    -0x4(%rbp),%eax[K
    1184:       89 c6                   mov    %eax,%esi[K
    1186:       48 8d 3d 7a 0e 00 00    lea    0xe7a(%rip),%rdi        # 2007 <_IO\
[A
_stdin_used+0x7>[K
    118d:       b8 00 00 00 00          mov    $0x0,%eax[K
    1192:       e8 99 fe ff ff          callq  1030 <printf@plt>[K
    1197:       eb b4                   jmp    114d <main+0x8>[K
    1199:       c9                      leaveq[K
    119a:       c3                      retq[K
    119b:       90                      nop[K
[K
000000000000119c <mystery>:[K
    119c:       55                      push   %rbp[K
    119d:       48 89 e5                mov    %rsp,%rbp[K
    11a0:       89 7d fc                mov    %edi,-0x4(%rbp)[K
    11a3:       8b 45 fc                mov    -0x4(%rbp),%eax[K
				[30m[48;5;250m57% L124[39;49m[20;1H[?12l[?25h[?12;25h[38;40H[?25l[30m[48;5;250m5[39;49m[21;1H[?12l[?25h[?12;25h[38;40H[?25l[30m[48;5;250m6[39;49m[22;1H[?12l[?25h[?12;25h[38;40H[?25l[30m[48;5;250m7[39;49m[23;1H[?12l[?25h[?12;25h[38;40H[?25l[30m[48;5;250m8[39;49m[24;1H[?12l[?25h[?12;25h
[38;40H[?25l[30m[48;5;250m9[39;49m[26;1H[?12l[?25h[?12;25h[38;39H[?25l[30m[48;5;250m30[39;49m[27;1H[?12l[?25h[?12;25h[38;40H[?25l[30m[48;5;250m1[39;49m[28;1H[?12l[?25h[?12;25h[38;40H[?25l[30m[48;5;250m2[39;49m[29;1H[?12l[?25h[?12;25h[38;40H[?25l[30m[48;5;250m3[39;49m[30;1H[?12l[?25h[?12;25h[38;40H[?25l[30m[48;5;250m4[39;49m[31;1H[?12l[?25h[?12;25h[38;40H[?25l[30m[48;5;250m5[39;49m[32;1H[?12l[?25h[?12;25h[38;40H[?25l[30m[48;5;250m6[39;49m[33;1H[?12l[?25h[?12;25h[38;40H[?25l[30m[48;5;250m7[39;49m[34;1H[?12l[?25h[?12;25h[38;40H[?25l[30m[48;5;250m8[39;49m[35;1H[?12l[?25h[?12;25h[38;40H[?25l[30m[48;5;250m9[39;49m[36;1H[?12l[?25h[?12;25h[38;39H[?25l[30m[48;5;250m40[39;49m[A[?12l[?25h[?12;25h[1;37r[2;1H[18M[1;39r[20;1H[?25l    11a6:       25 ff ff 7f 00          and    $0x7fffff,%eax[K
    11ab:       c9                      leaveq[K
    11ac:       c3                      retq[K
    11ad:       0f 1f 00                nopl   (%rax)[K
[K
00000000000011b0 <__libc_csu_init>:[K
    11b0:       41 57                   push   %r15[K
    11b2:       49 89 d7                mov    %rdx,%r15[K
    11b5:       41 56                   push   %r14[K
    11b7:       49 89 f6                mov    %rsi,%r14[K
    11ba:       41 55                   push   %r13[K
    11bc:       41 89 fd                mov    %edi,%r13d[K
    11bf:       41 54                   push   %r12[K
    11c1:       4c 8d 25 20 2c 00 00    lea    0x2c20(%rip),%r12        # 3de8 <__\
[A
frame_dummy_init_array_entry>[K
    11c8:       55                      push   %rbp[K
    11c9:       48 8d 2d 20 2c 00 00    lea    0x2c20(%rip),%rbp        # 3df0 <__\
[A
init_array_end>[K
			[30m[48;5;250m67% L141[39;49m[20;1H[?12l[?25h[?12;25h[38;40H[?25l[30m[48;5;250m2[39;49m[21;1H[?12l[?25h[?12;25h[38;40H[?25l[30m[48;5;250m3[39;49m[22;1H[?12l[?25h[?12;25h[38;40H[?25l[30m[48;5;250m4[39;49m[23;1H[?12l[?25h[?12;25h[38;40H[?25l[30m[48;5;250m5[39;49m[24;1H[?12l[?25h[?12;25h[38;40H[?25l[30m[48;5;250m6[39;49m[25;1H[?12l[?25h[?12;25h[38;40H[?25l[30m[48;5;250m7[39;49m[26;1H[?12l[?25h[?12;25h[38;40H[?25l[30m[48;5;250m8[39;49m[27;1H[?12l[?25h[?12;25h[38;40H[?25l[30m[48;5;250m9[39;49m[28;1H[?12l[?25h[?12;25h[38;39H[?25l[30m[48;5;250m50[39;49m[29;1H[?12l[?25h[?12;25h[38;40H[?25l[30m[48;5;250m1[39;49m[30;1H[?12l[?25h[?12;25h[38;40H[?25l[30m[48;5;250m2[39;49m[31;1H[?12l[?25h[?12;25h[38;40H[?25l[30m[48;5;250m3[39;49m[32;1H[?12l[?25h[?12;25h[38;40H[?25l[30m[48;5;250m4[39;49m[33;1H[?12l[?25h[?12;25h
[38;40H[?25l[30m[48;5;250m5[39;49m[35;1H[?12l[?25h[?12;25h[38;40H[?25l[30m[48;5;250m6[39;49m[36;1H[?12l[?25h[?12;25h
[1;37r[2;1H[18M[1;39r[20;1H[?25l    11d0:       53                      push   %rbx[K
    11d1:       4c 29 e5                sub    %r12,%rbp[K
    11d4:       48 83 ec 08             sub    $0x8,%rsp[K
    11d8:       e8 23 fe ff ff          callq  1000 <_init>[K
    11dd:       48 c1 fd 03             sar    $0x3,%rbp[K
    11e1:       74 1b                   je     11fe <__libc_csu_init+0x4e>[K
    11e3:       31 db                   xor    %ebx,%ebx[K
    11e5:       0f 1f 00                nopl   (%rax)[K
    11e8:       4c 89 fa                mov    %r15,%rdx[K
    11eb:       4c 89 f6                mov    %r14,%rsi[K
    11ee:       44 89 ef                mov    %r13d,%edi[K
    11f1:       41 ff 14 dc             callq  *(%r12,%rbx,8)[K
    11f5:       48 83 c3 01             add    $0x1,%rbx[K
    11f9:       48 39 dd                cmp    %rbx,%rbp[K
    11fc:       75 ea                   jne    11e8 <__libc_csu_init+0x38>[K
    11fe:       48 83 c4 08             add    $0x8,%rsp[K
    1202:       5b                      pop    %rbx[K
    1203:       5d                      pop    %rbp[K
				[30m[48;5;250m76% L157[39;49m[20;1H[?12l[?25h[?12;25h[38;40H[?25l[30m[48;5;250m8[39;49m[21;1H[?12l[?25h[?12;25h[38;40H[?25l[30m[48;5;250m9[39;49m[22;1H[?12l[?25h[?12;25h[38;39H[?25l[30m[48;5;250m60[39;49m[23;1H[?12l[?25h[?12;25h[38;40H[?25l[30m[48;5;250m1[39;49m[24;1H[?12l[?25h[?12;25h[38;40H[?25l[30m[48;5;250m2[39;49m[25;1H[?12l[?25h[?12;25h[38;40H[?25l[30m[48;5;250m3[39;49m[26;1H[?12l[?25h[?12;25h[38;40H[?25l[30m[48;5;250m4[39;49m[27;1H[?12l[?25h[?12;25h[38;40H[?25l[30m[48;5;250m5[39;49m[28;1H[?12l[?25h[?12;25h[38;40H[?25l[30m[48;5;250m6[39;49m[29;1H[?12l[?25h[?12;25h[38;40H[?25l[30m[48;5;250m7[39;49m[30;1H[?12l[?25h[?12;25h[38;40H[?25l[30m[48;5;250m8[39;49m[31;1H[?12l[?25h[?12;25h[38;40H[?25l[30m[48;5;250m9[39;49m[32;1H[?12l[?25h[?12;25h[38;39H[?25l[30m[48;5;250m70[39;49m[33;1H[?12l[?25h[?12;25h[38;40H[?25l[30m[48;5;250m1[39;49m[34;1H[?12l[?25h[?12;25h[38;40H[?25l[30m[48;5;250m2[39;49m[35;1H[?12l[?25h[?12;25h[38;40H[?25l[30m[48;5;250m3[39;49m[36;1H[?12l[?25h[?12;25h[38;40H[?25l[30m[48;5;250m4[39;49m[A[?12l[?25h[?12;25h[1;37r[2;1H[18M[1;39r[20;1H[?25l    1204:       41 5c                   pop    %r12[K
    1206:       41 5d                   pop    %r13[K
    1208:       41 5e                   pop    %r14[K
    120a:       41 5f                   pop    %r15[K
    120c:       c3                      retq[K
    120d:       0f 1f 00                nopl   (%rax)[K
[K
0000000000001210 <__libc_csu_fini>:[K
    1210:       c3                      retq[K
[K
Disassembly of section .fini:[K
[K
0000000000001214 <_fini>:[K
    1214:       48 83 ec 08             sub    $0x8,%rsp[K
    1218:       48 83 c4 08             add    $0x8,%rsp[K
    121c:       c3                      retq[K
[K
[K
				[30m[48;5;250mBot L175[39;49m[20;1H[?12l[?25h[?12;25h[38;40H[?25l[30m[48;5;250m6[39;49m[21;1H[?12l[?25h[?12;25h[38;40H[?25l[30m[48;5;250m7[39;49m[22;1H[?12l[?25h[?12;25h[38;40H[?25l[30m[48;5;250m8[39;49m[23;1H[?12l[?25h[?12;25h[38;40H[?25l[30m[48;5;250m9[39;49m[24;1H[?12l[?25h[?12;25h[38;39H[?25l[30m[48;5;250m80[39;49m[25;1H[?12l[?25h[?12;25h[38;40H[?25l[30m[48;5;250m1[39;49m[26;1H[?12l[?25h[?12;25h[38;40H[?25l[30m[48;5;250m2[39;49m[27;1H[?12l[?25h[?12;25h[38;40H[?25l[30m[48;5;250m3[39;49m[28;1H[?12l[?25h[?12;25h[38;40H[?25l[30m[48;5;250m4[39;49m[29;1H[?12l[?25h[?12;25h[38;40H[?25l[30m[48;5;250m5[39;49m[30;1H[?12l[?25h[?12;25h[38;40H[?25l[30m[48;5;250m6[39;49m[31;1H[?12l[?25h[?12;25h[38;40H[?25l[30m[48;5;250m7[39;49m[32;1H[?12l[?25h[?12;25h[38;40H[?25l[30m[48;5;250m8[39;49m[33;1H[?12l[?25h[?12;25h[38;40H[?25l[30m[48;5;250m9[39;49m[34;1H[?12l[?25h[?12;25h[38;39H[?25l[30m[48;5;250m90[39;49m[35;1H[?12l[?25h[?12;25h[38;40H[?25l[30m[48;5;250m1[39;49m[36;1H[?12l[?25h[?12;25h


[?25lEnd of buffer[36;1H[?12l[?25h[?12;25h


[K[?1004l[?2004l[?1l>[?12l[?25h[?1049l[23;0;0t[39;49m
[1]+  Stopped                 emacs identify.objdump
jgordo39@remote07:~/i220a/submit/lab5/exercises/identify$ fg
emacs identify.objdump
[?1049h[22;0;0t[?12;25h[?1h=[?1004h[?2004h[39;1H[K[H[?25l[7mFile Edit Options Buffers Tools Help                                               [0m[39;49m[27m
[A
    11d0:       53                      push   %rbx[K
    11d1:       4c 29 e5                sub    %r12,%rbp[K
    11d4:       48 83 ec 08             sub    $0x8,%rsp[K
    11d8:       e8 23 fe ff ff          callq  1000 <_init>[K
    11dd:       48 c1 fd 03             sar    $0x3,%rbp[K
    11e1:       74 1b                   je     11fe <__libc_csu_init+0x4e>[K
    11e3:       31 db                   xor    %ebx,%ebx[K
    11e5:       0f 1f 00                nopl   (%rax)[K
    11e8:       4c 89 fa                mov    %r15,%rdx[K
    11eb:       4c 89 f6                mov    %r14,%rsi[K
    11ee:       44 89 ef                mov    %r13d,%edi[K
    11f1:       41 ff 14 dc             callq  *(%r12,%rbx,8)[K
    11f5:       48 83 c3 01             add    $0x1,%rbx[K
    11f9:       48 39 dd                cmp    %rbx,%rbp[K
    11fc:       75 ea                   jne    11e8 <__libc_csu_init+0x38>[K
    11fe:       48 83 c4 08             add    $0x8,%rsp[K
    1202:       5b                      pop    %rbx[K
    1203:       5d                      pop    %rbp[K
    1204:       41 5c                   pop    %r12[K
    1206:       41 5d                   pop    %r13[K
    1208:       41 5e                   pop    %r14[K
    120a:       41 5f                   pop    %r15[K
    120c:       c3                      retq[K
    120d:       0f 1f 00                nopl   (%rax)[K
[K
0000000000001210 <__libc_csu_fini>:[K
    1210:       c3                      retq[K
[K
Disassembly of section .fini:[K
[K
0000000000001214 <_fini>:[K
    1214:       48 83 ec 08             sub    $0x8,%rsp[K
    1218:       48 83 c4 08             add    $0x8,%rsp[K
    121c:       c3                      retq[K
[K
[K
[30m[48;5;250m-UU-:----F1  [39;49m[1m[30m[48;5;250midentify.objdump[0m[39;49m[30m[48;5;250m   Bot L191   (Fundamental) 10:45AM ------------------[39;49m
[A[36d[?12l[?25h[?12;25h


[K[?1004l[?2004l[?1l>[?12l[?25h[?1049l[23;0;0t[39;49mjgordo39@remote07:~/i220a/submit/lab5/exercises/identify$ fgemacs identify.objdumpls[Kemacs identify.objdumpls[K;srm indidentify.objdump[12Pmake cleanls[Kobjdump -d identify > identify.objdump[A[C[C[C[C[C[C[C[C[C[C[C[C[C[C[C[C[C[C[C[C[C[C[C[C[C[C[C[C[C[C[C[C[C[C[C[C[C[C[C[C[C[C[C[C[C[3Pemacs identify.objdump
[K[A[C[C[C[C[C[C[C[C[C[C[C[C[C[C[C[C[C[C[C[C[C[C[C[C[C[C[C[C[C[C[C[C[C[C[C[C[C[C[C[C[C[C[C[C[C[C[C[C[C[C[C[C[C[C[C[C[C[C[C[C[C[C[C[C[C[C[C[C[C[C[C[C[C[C[C[C[C[C[C[Cls[Kemacs identify.objdumpobjdump -d identify > identify.objdump[A[C[C[C[C[C[C[C[C[C[C[C[C[C[C[C[C[C[C[C[C[C[C[C[C[C[C[C[C[C[C[C[C[C[C[C[C[C[C[C[C[C[C[C[C[C[C[C[C[C[C[C[C[C[C[C[C[C[C[C[C[C[C[C[C[C[C[C[C[C[C[C[C[C[C[C[C[C[C[C[C[C[C. > identify.objdump[A[C[C[C[C[C[C[C[C[C[C[C[C[C[C[C[C[C[C[C[C[C[C[C[C[C[C[C[C[C[C[C[C[C[C[C[C[C[C[C[C[C[C[C[C[C[C[C[C[C[C[C[C[C[C[C[C[C[C[C[C[C[C[C[Co > identify.objdump[A[C[C[C[C[C[C[C[C[C[C[C[C[C[C[C[C[C[C[C[C[C[C[C[C[C[C[C[C[C[C[C[C[C[C[C[C[C[C[C[C[C[C[C[C[C[C[C[C[C[C[C[C[C[C[C[C[C[C[C[C[C[C[C[C

jgordo39@remote07:~/i220a/submit/lab5/exercises/identify$ objdump -d identify.o > identify.objdump[A[C[C[C[C[C[C[C[C[C[C[C[C[C[C[C[C[C[C[C[C[C[C[C[C[C[C[C[C[C[C[C[C[C[C[C[C[C[C[C[C[C[C[Cfg[K
[K[A[C[C[C[C[C[C[C[C[C[C[C[C[C[C[C[C[C[C[C[C[C[C[C[C[C[C[C[C[C[C[C[C[C[C[C[C[C[C[C[C[C[C[C[C[C[C[C[C[C[C[C[C[C[C[C[C[C[C[C[Cemacs identify.objdump
[?1049h[22;0;0t[?12;25h[?1h=[H[2J[39d[K[?1l>[?12l[?25h[?1049l[23;0;0t[39;49m[?1049h[22;0;0t[?12;25h[?1h=[H[2J[38d[?25l[30m[47m-UUU:----F1  [39;49m[1m[30m[47m*scratch*   [0m[39;49m[30m[47m   All L1     (Fundamental) ------------------------------[39;49m
[A[2d[?12l[?25h[?12;25h[39d[?25lLoading /etc/emacs/site-start.d/00debian.el (source)...done[K[H
[?12l[?25h[?12;25h[39;33H[?25l50a2ps.el (source)...[K[H
[?12l[?25h[?12;25h[39;54H[?25ldone[H
[?12l[?25h[?12;25h[39;36H[?25lsymptote.el (source)...[H
[?12l[?25h[?12;25h[39;59H[?25ldone[H
[?12l[?25h[?12;25h[39;36H[?25lutoconf.el (source)...[K[H
[?12l[?25h[?12;25h[39;58H[?25ldone[H
[?12l[?25h[?12;25h[39;35H[?25lcmake-data.el (source)...[K[H
[?12l[?25h[?12;25h[39;60H[?25ldone[H
[?12l[?25h[?12;25h[39;35H[?25ldevhelp.el (source)...[K[H
[?12l[?25h[?12;25h[39;57H[?25ldone[H
[?12l[?25h[?12;25h[39;36H[?25lictionaries-common.el (source)...[H
[?12l[?25h[?12;25h[39;9H[?25ldebian-ispell...[K[H
[?12l[?25h[?12;25h[39;9H[?25l/var/cache/dictionaries-common/emacsen-ispell-default.el (source)...[H
[?12l[?25h[?12;25h[39;77H[?25ldone[H
[?12l[?25h[?12;25h[39;9H[?25ldebian-ispell...done[K[H
[?12l[?25h[?12;25h[39;9H[?25l/var/cache/dictionaries-common/emacsen-ispell-dicts.el (source)...[H
[?12l[?25h[?12;25h[39;75H[?25ldone[H
[?12l[?25h[?12;25h[39;10H[?25letc/emacs/site-start.d/50dictionaries-common[6P[H
[?12l[?25h[?12;25h[39;35H[?25lerlang-mode.el (source)...[K[H
[?12l[?25h[?12;25h[39;61H[?25ldone[H
[?12l[?25h[?12;25h[39;35H[?25lhaskell-mode.el (source)...[K[H
[?12l[?25h[?12;25h[39d[?25ll (source)...[K[H[7mFile Edit Options Buffers Tools Help                                               [0m[39;49m[27m
[A
[K
[K
[K
[K
[K
[K
[K
[K
[K
[K
[K
[K
[K
[K
[K
[K
[K
[K
[K
[K
[K
[K
[K
[K
[K
[K
[K
[K
[K
[K
[K
[K
[K
[K
[K
[30m[47m-UUU:----F1  [39;49m[1m[30m[47m*scratch*   [0m[39;49m[30m[47m   All L1     (Fundamental) ------------------------------[39;49m
[A
Loading /usr/share/emacs/site-lisp/elpa/haskell-mode-16.1/haskell-mode-autoloads.e\
[A[2d[?12l[?25h[?12;25h[39;14H[?25ldone[H
[?12l[?25h[?12;25h[39d[K[38;10H[?25letc/emacs/site-start.d/50haskell-mode.el (source)...done[K[H
[?12l[?25h[?12;25h[38;35H[?25llatex-cjk-common.el (source)...[H
[?12l[?25h[?12;25h[38;10H[?25lusr/share/emacs/site-lisp/latex-cjk-commo[9@n/cjk-enc[H
[?12l[?25h[?12;25h[38;75H[?25ldone[H
[?12l[?25h[?12;25h[38;10H[?25letc/emacs/site-start.d/50latex-cjk-common[9P[H
[?12l[?25h[?12;25h[38;45H[?25lthai.el (source)...[K[H
[?12l[?25h[?12;25h[38;64H[?25ldone[H
[?12l[?25h[?12;25h[38;35H[?25lpsvn.el (source)...[K[H
[?12l[?25h[?12;25h[38;54H[?25ldone[H
[?12l[?25h[?12;25h[38;36H[?25lython-docutils.el (source)...[H
[?12l[?25h[?12;25h[38;65H[?25ldone[H
[?12l[?25h[?12;25h[38;35H[?25ltcsh.el (source)...[K[H
[?12l[?25h[?12;25h[38;54H[?25ldone[H
[?12l[?25h[?12;25h[38;36H[?25lexlive-lang-english.el (source)...[H
[?12l[?25h[?12;25h[38;70H[?25ldone[H
[?12l[?25h[?12;25h[>0c[?2004h[?1004h[39d[?25lFor information about GNU Emacs and the GNU system, type C-h C-a.[K[H[7mFile Edit Options Buffers Tools Lisp-Interaction Help                              [0m[39;49m[27m
[A
[K
[K
[K
[K
[K
[K
[K
[K
[K
[K
[K
[K
[K
[K
[K
[K
[K
[K
[K
[K
[K
[K
[K
[K
[K
[K
[K
[K
[K
[K
[K
[K
[K
[K
[K
[K
[30m[48;5;250m-UUU:----F1  [39;49m[1m[30m[48;5;250m*scratch*   [0m[39;49m[30m[48;5;250m   All L1     (Lisp Interaction ElDoc) 10:46AM 0.21 ------[39;49m
[A[2d[?12l[?25h[?12;25h[39d[?25lFor information about GNU Emacs and the GNU system, type C-h C-a.[K[H[7mFile Edit Options Buffers Tools Help                                               [0m[39;49m[27m
[A
[K
identify.o:     file format elf64-x86-64[K
[K
[K
Disassembly of section .text:[K
[K
0000000000000000 <main>:[K
   0:   55                      push   %rbp[K
   1:   48 89 e5                mov    %rsp,%rbp[K
   4:   48 83 ec 10             sub    $0x10,%rsp[K
   8:   48 8d 45 f8             lea    -0x8(%rbp),%rax[K
   c:   48 89 c6                mov    %rax,%rsi[K
   f:   48 8d 3d 00 00 00 00    lea    0x0(%rip),%rdi        # 16 <main+0x16>[K
  16:   b8 00 00 00 00          mov    $0x0,%eax[K
  1b:   e8 00 00 00 00          callq  20 <main+0x20>[K
  20:   83 f8 01                cmp    $0x1,%eax[K
  23:   74 07                   je     2c <main+0x2c>[K
  25:   b8 00 00 00 00          mov    $0x0,%eax[K
  2a:   eb 28                   jmp    54 <main+0x54>[K
  2c:   8b 45 f8                mov    -0x8(%rbp),%eax[K
  2f:   89 c7                   mov    %eax,%edi[K
  31:   e8 00 00 00 00          callq  36 <main+0x36>[K
  36:   89 45 fc                mov    %eax,-0x4(%rbp)[K
  39:   8b 55 fc                mov    -0x4(%rbp),%edx[K
  3c:   8b 45 fc                mov    -0x4(%rbp),%eax[K
  3f:   89 c6                   mov    %eax,%esi[K
  41:   48 8d 3d 00 00 00 00    lea    0x0(%rip),%rdi        # 48 <main+0x48>[K
  48:   b8 00 00 00 00          mov    $0x0,%eax[K
  4d:   e8 00 00 00 00          callq  52 <main+0x52>[K
  52:   eb b4                   jmp    8 <main+0x8>[K
  54:   c9                      leaveq[K
  55:   c3                      retq[K
[K
[K
[K
[K
[30m[48;5;250m-UU-:----F1  [39;49m[1m[30m[48;5;250midentify.objdump[0m[39;49m[30m[48;5;250m   All L1     (Fundamental) 10:46AM 0.21 -------------[39;49m
[A[2d[?12l[?25h[?12;25h[39d[K[2d[38;62H[?25l[30m[48;5;250m7AM 0.12[39;49m[H
[?12l[?25h[?12;25h[39d[K[?1004l[?2004l[?1l>[?12l[?25h[?1049l[23;0;0t[39;49mjgordo39@remote07:~/i220a/submit/lab5/exercises/identify$ pls[K[K[Kls
identify  identify.c  identify.o  identify.objdump  Makefile  mystery.h  mystery.o
jgordo39@remote07:~/i220a/submit/lab5/exercises/identify$ lsemacs identify.objdumpobjdump -d identify.o > identify.objdump[A[C[C[C[C[C[C[C[C[C[C[C[C[C[C[C[C[C[C[C[C[C[C[C[C[C[C[C[C[C[C[C[C[C[C[C[C[C[C[C[C[C[C[Cfg[K
[K[A[C[C[C[C[C[C[C[C[C[C[C[C[C[C[C[C[C[C[C[C[C[C[C[C[C[C[C[C[C[C[C[C[C[C[C[C[C[C[C[C[C[C[C[C[C[C[C[C[C[C[C[C[C[C[C[C[C[C[C[Cemacs identify.objdumpls[K;srm indidentify.objdump[12Pmake cleanls[Kobjdump -d identify > identify.objdump[A[C[C[C[C[C[C[C[C[C[C[C[C[C[C[C[C[C[C[C[C[C[C[C[C[C[C[C[C[C[C[C[C[C[C[C[C[C[C[C[C[C[C[C[C[C[3Pemacs identify.objdump
[K[A[C[C[C[C[C[C[C[C[C[C[C[C[C[C[C[C[C[C[C[C[C[C[C[C[C[C[C[C[C[C[C[C[C[C[C[C[C[C[C[C[C[C[C[C[C[C[C[C[C[C[C[C[C[C[C[C[C[C[C[C[C[C[C[C[C[C[C[C[C[C[C[C[C[C[C[C[C[C[C[Cobjdump -d identify > identify.objdump[A[C[C[C[C[C[C[C[C[C[C[C[C[C[C[C[C[C[C[C[C[C[C[C[C[C[C[C[C[C[C[C[C[C[C[C[C[C[C[C[C[C[C[C[C[C[3Pemacs identify.objdump
[K[A[C[C[C[C[C[C[C[C[C[C[C[C[C[C[C[C[C[C[C[C[C[C[C[C[C[C[C[C[C[C[C[C[C[C[C[C[C[C[C[C[C[C[C[C[C[C[C[C[C[C[C[C[C[C[C[C[C[C[C[C[C[C[C[C[C[C[C[C[C[C[C[C[C[C[C[C[C[C[C[Cls[Kobjdump -d identify > indidentify.objdump[A[C[C[C[C[C[C[C[C[C[C[C[C[C[C[C[C[C[C[C[C[C[C[C[C[C[C[C[C[C[C[C[C[C[C[C[C[C[C[C[C[C[Cls[K
[K[A[C[C[C[C[C[C[C[C[C[C[C[C[C[C[C[C[C[C[C[C[C[C[C[C[C[C[C[C[C[C[C[C[C[C[C[C[C[C[C[C[C[C[C[C[C[C[C[C[C[C[C[C[C[C[C[C[C[C[C[Cemacs identify.objdumpobjdump -d identify > identify.objdump[C[A[C[C[C[C[C[C[C[C[C[C[C[C[C[C[C[C[C[C[C[C[C[C[C[C[C[C[C[C[C[C[C[C[C[C[C[C[C[C[C[C[C[C[C[C[C[C[C[C[C[C[C[C[C[C[C[C[C[C[C[C[C[C[C[C[C[C[C[C[C[C[C[C[C[C[C[C[C[C[C[C[C[C[C identify > identify.objdump[A[C[C[C[C[C[C[C[C[C[C[C[C[C[C[C[C[C[C[C[C[C[C[C[C[C[C[C[C[C[C[C[C[C[C[C[C[C[C[C[C[C[C[C[C[C[C[C[C[C[C[C[C[C[C[C- identify > identify.objdump[A[C[C[C[C[C[C[C[C[C[C[C[C[C[C[C[C[C[C[C[C[C[C[C[C[C[C[C[C[C[C[C[C[C[C[C[C[C[C[C[C[C[C[C[C[C[C[C[C[C[C[C[C[C[C[Cs identify > identify.objdump[A[C[C[C[C[C[C[C[C[C[C[C[C[C[C[C[C[C[C[C[C[C[C[C[C[C[C[C[C[C[C[C[C[C[C[C[C[C[C[C[C[C[C[C[C[C[C[C[C[C[C[C[C[C[C[C[C identify > identify.objdump[A[C[C[C[C[C[C[C[C[C[C[C[C[C[C[C[C[C[C[C[C[C[C[C[C[C[C[C[C[C[C[C[C[C[C[C[C[C[C[C[C[C[C[C[C[C[C[C[C[C[C[C[C[C[C[C- identify > identify.objdump[A[C[C[C[C[C[C[C[C[C[C[C[C[C[C[C[C[C[C[C[C[C[C[C[C[C[C[C[C[C[C[C[C[C[C[C[C[C[C[C[C[C[C[C[C[C[C[C[C[C[C[C[C[C[C[Cx identify > identify.objdump[A[C[C[C[C[C[C[C[C[C[C[C[C[C[C[C[C[C[C[C[C[C[C[C[C[C[C[C[C[C[C[C[C[C[C[C[C[C[C[C[C[C[C[C[C[C[C[C[C[C[C[C[C[C[C[C

jgordo39@remote07:~/i220a/submit/lab5/exercises/identify$ objdump -d -s -x identify > identify.objdump[A[C[C[C[C[C[C[C[C[C[C[C[C[C[C[C[C[C[C[C[C[C[C[C[C[C[C[C[C[C[C[C[C[C[C[C[C[C[C[Cls[K
[K[A[C[C[C[C[C[C[C[C[C[C[C[C[C[C[C[C[C[C[C[C[C[C[C[C[C[C[C[C[C[C[C[C[C[C[C[C[C[C[C[C[C[C[C[C[C[C[C[C[C[C[C[C[C[C[C[C[C[C[C[Cemacs identify.objdump
[?1049h[22;0;0t[?12;25h[?1h=[H[2J[39d[K[?1l>[?12l[?25h[?1049l[23;0;0t[39;49m[?1049h[22;0;0t[?12;25h[?1h=[H[2J[38d[?25l[30m[47m-UUU:----F1  [39;49m[1m[30m[47m*scratch*   [0m[39;49m[30m[47m   All L1     (Fundamental) ------------------------------[39;49m
[A[2d[?12l[?25h[?12;25h[39d[?25lLoading /etc/emacs/site-start.d/00debian.el (source)...done[K[H
[?12l[?25h[?12;25h[39;33H[?25l50a2ps.el (source)...[K[H
[?12l[?25h[?12;25h[39;54H[?25ldone[H
[?12l[?25h[?12;25h[39;36H[?25lsymptote.el (source)...[H
[?12l[?25h[?12;25h[39;59H[?25ldone[H
[?12l[?25h[?12;25h[39;36H[?25lutoconf.el (source)...[K[H
[?12l[?25h[?12;25h[39;58H[?25ldone[H
[?12l[?25h[?12;25h[39;35H[?25lcmake-data.el (source)...[K[H
[?12l[?25h[?12;25h[39;60H[?25ldone[H
[?12l[?25h[?12;25h[39;35H[?25ldevhelp.el (source)...[K[H
[?12l[?25h[?12;25h[39;57H[?25ldone[H
[?12l[?25h[?12;25h[39;36H[?25lictionaries-common.el (source)...[H
[?12l[?25h[?12;25h[39;9H[?25ldebian-ispell...[K[H
[?12l[?25h[?12;25h[39;9H[?25l/var/cache/dictionaries-common/emacsen-ispell-default.el (source)...[H
[?12l[?25h[?12;25h[39;77H[?25ldone[H
[?12l[?25h[?12;25h[39;9H[?25ldebian-ispell...done[K[H
[?12l[?25h[?12;25h[39;9H[?25l/var/cache/dictionaries-common/emacsen-ispell-dicts.el (source)...[H
[?12l[?25h[?12;25h[39;75H[?25ldone[H
[?12l[?25h[?12;25h[39;10H[?25letc/emacs/site-start.d/50dictionaries-common[6P[H
[?12l[?25h[?12;25h[39;35H[?25lerlang-mode.el (source)...[K[H
[?12l[?25h[?12;25h[39;61H[?25ldone[H
[?12l[?25h[?12;25h[39;35H[?25lhaskell-mode.el (source)...[K[H
[?12l[?25h[?12;25h[39d[?25ll (source)...[K[H[7mFile Edit Options Buffers Tools Help                                               [0m[39;49m[27m
[A
[K
[K
[K
[K
[K
[K
[K
[K
[K
[K
[K
[K
[K
[K
[K
[K
[K
[K
[K
[K
[K
[K
[K
[K
[K
[K
[K
[K
[K
[K
[K
[K
[K
[K
[K
[30m[47m-UUU:----F1  [39;49m[1m[30m[47m*scratch*   [0m[39;49m[30m[47m   All L1     (Fundamental) ------------------------------[39;49m
[A
Loading /usr/share/emacs/site-lisp/elpa/haskell-mode-16.1/haskell-mode-autoloads.e\
[A[2d[?12l[?25h[?12;25h[39;14H[?25ldone[H
[?12l[?25h[?12;25h[39d[K[38;10H[?25letc/emacs/site-start.d/50haskell-mode.el (source)...done[K[H
[?12l[?25h[?12;25h[38;35H[?25llatex-cjk-common.el (source)...[H
[?12l[?25h[?12;25h[38;10H[?25lusr/share/emacs/site-lisp/latex-cjk-commo[9@n/cjk-enc[H
[?12l[?25h[?12;25h[38;75H[?25ldone[H
[?12l[?25h[?12;25h[38;10H[?25letc/emacs/site-start.d/50latex-cjk-common[9P[H
[?12l[?25h[?12;25h[38;45H[?25lthai.el (source)...[K[H
[?12l[?25h[?12;25h[38;64H[?25ldone[H
[?12l[?25h[?12;25h[38;35H[?25lpsvn.el (source)...[K[H
[?12l[?25h[?12;25h[38;54H[?25ldone[H
[?12l[?25h[?12;25h[38;36H[?25lython-docutils.el (source)...[H
[?12l[?25h[?12;25h[38;65H[?25ldone[H
[?12l[?25h[?12;25h[38;35H[?25ltcsh.el (source)...[K[H
[?12l[?25h[?12;25h[38;54H[?25ldone[H
[?12l[?25h[?12;25h[38;36H[?25lexlive-lang-english.el (source)...[H
[?12l[?25h[?12;25h[38;70H[?25ldone[H
[?12l[?25h[?12;25h[>0c[?2004h[?1004h[39d[?25lFor information about GNU Emacs and the GNU system, type C-h C-a.[K[H[7mFile Edit Options Buffers Tools Lisp-Interaction Help                              [0m[39;49m[27m
[A
[K
[K
[K
[K
[K
[K
[K
[K
[K
[K
[K
[K
[K
[K
[K
[K
[K
[K
[K
[K
[K
[K
[K
[K
[K
[K
[K
[K
[K
[K
[K
[K
[K
[K
[K
[K
[30m[48;5;250m-UUU:----F1  [39;49m[1m[30m[48;5;250m*scratch*   [0m[39;49m[30m[48;5;250m   All L1     (Lisp Interaction ElDoc) 10:48AM -----------[39;49m
[A[2d[?12l[?25h[?12;25h[39d[?25lFor information about GNU Emacs and the GNU system, type C-h C-a.[K[H[7mFile Edit Options Buffers Tools Help                                               [0m[39;49m[27m
[A
[K
identify:     file format elf64-x86-64[K
identify[K
architecture: i386:x86-64, flags 0x00000150:[K
HAS_SYMS, DYNAMIC, D_PAGED[K
start address 0x0000000000001060[K
[K
Program Header:[K
    PHDR off    0x0000000000000040 vaddr 0x0000000000000040 paddr 0x00000000000000\
[A
40 align 2**3[K
         filesz 0x0000000000000268 memsz 0x0000000000000268 flags r--[K
  INTERP off    0x00000000000002a8 vaddr 0x00000000000002a8 paddr 0x00000000000002\
[A
a8 align 2**0[K
         filesz 0x000000000000001c memsz 0x000000000000001c flags r--[K
    LOAD off    0x0000000000000000 vaddr 0x0000000000000000 paddr 0x00000000000000\
[A
00 align 2**12[K
         filesz 0x00000000000005c0 memsz 0x00000000000005c0 flags r--[K
    LOAD off    0x0000000000001000 vaddr 0x0000000000001000 paddr 0x00000000000010\
[A
00 align 2**12[K
         filesz 0x000000000000021d memsz 0x000000000000021d flags r-x[K
    LOAD off    0x0000000000002000 vaddr 0x0000000000002000 paddr 0x00000000000020\
[A
00 align 2**12[K
         filesz 0x0000000000000188 memsz 0x0000000000000188 flags r--[K
    LOAD off    0x0000000000002de8 vaddr 0x0000000000003de8 paddr 0x0000000000003d\
[A
e8 align 2**12[K
         filesz 0x0000000000000250 memsz 0x0000000000000258 flags rw-[K
 DYNAMIC off    0x0000000000002df8 vaddr 0x0000000000003df8 paddr 0x0000000000003d\
[A
f8 align 2**3[K
         filesz 0x00000000000001e0 memsz 0x00000000000001e0 flags rw-[K
    NOTE off    0x00000000000002c4 vaddr 0x00000000000002c4 paddr 0x00000000000002\
[A
c4 align 2**2[K
         filesz 0x0000000000000044 memsz 0x0000000000000044 flags r--[K
EH_FRAME off    0x000000000000201c vaddr 0x000000000000201c paddr 0x00000000000020\
[A
1c align 2**2[K
         filesz 0x0000000000000044 memsz 0x0000000000000044 flags r--[K
   STACK off    0x0000000000000000 vaddr 0x0000000000000000 paddr 0x00000000000000\
[A
[30m[48;5;250m-UU-:----F1  [39;49m[1m[30m[48;5;250midentify.objdump[0m[39;49m[30m[48;5;250m   Top L1     (Fundamental) 10:48AM ------------------[39;49m
[A[2d[?12l[?25h[?12;25h[39d[K[2d[38;38H[?25l[30m[48;5;250m2[39;49m[H

[?12l[?25h[?12;25h[38;38H[?25l[30m[48;5;250m3[39;49m[4;1H[?12l[?25h[?12;25h[38;38H[?25l[30m[48;5;250m4[39;49m[5;1H[?12l[?25h[?12;25h[38;38H[?25l[30m[48;5;250m5[39;49m[6;1H[?12l[?25h[?12;25h[38;38H[?25l[30m[48;5;250m6[39;49m[7;1H[?12l[?25h[?12;25h[38;38H[?25l[30m[48;5;250m7[39;49m[8;1H[?12l[?25h[?12;25h[38;38H[?25l[30m[48;5;250m8[39;49m[9;1H[?12l[?25h[?12;25h[38;38H[?25l[30m[48;5;250m9[39;49m[10;1H[?12l[?25h[?12;25h
[38;38H[?25l[30m[48;5;250m10[39;49m[12;1H[?12l[?25h[?12;25h[38;39H[?25l[30m[48;5;250m1[39;49m[13;1H[?12l[?25h[?12;25h
[38;39H[?25l[30m[48;5;250m2[39;49m[15;1H[?12l[?25h[?12;25h[38;39H[?25l[30m[48;5;250m3[39;49m[16;1H[?12l[?25h[?12;25h
[38;39H[?25l[30m[48;5;250m4[39;49m[18;1H[?12l[?25h[?12;25h[38;39H[?25l[30m[48;5;250m5[39;49m[19;1H[?12l[?25h[?12;25h
[38;39H[?25l[30m[48;5;250m6[39;49m[21;1H[?12l[?25h[?12;25h[38;39H[?25l[30m[48;5;250m7[39;49m[22;1H[?12l[?25h[?12;25h
[38;39H[?25l[30m[48;5;250m8[39;49m[24;1H[?12l[?25h[?12;25h[38;39H[?25l[30m[48;5;250m9[39;49m[25;1H[?12l[?25h[?12;25h
[38;38H[?25l[30m[48;5;250m20[39;49m[27;1H[?12l[?25h[?12;25h[38;39H[?25l[30m[48;5;250m1[39;49m[28;1H[?12l[?25h[?12;25h
[38;39H[?25l[30m[48;5;250m2[39;49m[30;1H[?12l[?25h[?12;25h[38;39H[?25l[30m[48;5;250m3[39;49m[31;1H[?12l[?25h[?12;25h
[38;39H[?25l[30m[48;5;250m4[39;49m[33;1H[?12l[?25h[?12;25h[38;39H[?25l[30m[48;5;250m5[39;49m[34;1H[?12l[?25h[?12;25h
[38;39H[?25l[30m[48;5;250m6[39;49m[36;1H[?12l[?25h[?12;25h[38;39H[?25l[30m[48;5;250m7[39;49m[A[?12l[?25h[?12;25h[1;37r[2;1H[18M[1;39r[20;1H[?25l00 align 2**4[K
         filesz 0x0000000000000000 memsz 0x0000000000000000 flags rw-[K
   RELRO off    0x0000000000002de8 vaddr 0x0000000000003de8 paddr 0x0000000000003d\
[A
e8 align 2**0[K
         filesz 0x0000000000000218 memsz 0x0000000000000218 flags r--[K
[K
Dynamic Section:[K
  NEEDED               libc.so.6[K
  INIT                 0x0000000000001000[K
  FINI                 0x0000000000001214[K
  INIT_ARRAY           0x0000000000003de8[K
  INIT_ARRAYSZ         0x0000000000000008[K
  FINI_ARRAY           0x0000000000003df0[K
  FINI_ARRAYSZ         0x0000000000000008[K
  GNU_HASH             0x0000000000000308[K
  STRTAB               0x00000000000003f0[K
  SYMTAB               0x0000000000000330[K
  STRSZ                0x000000000000009d[K
				[30m[48;5;250m 2%[39;49m[20;1H[?12l[?25h[?12;25h[38;39H[?25l[30m[48;5;250m8[39;49m[21;1H[?12l[?25h[?12;25h[38;39H[?25l[30m[48;5;250m9[39;49m[22;1H[?12l[?25h[?12;25h
[38;38H[?25l[30m[48;5;250m30[39;49m[24;1H[?12l[?25h[?12;25h[38;39H[?25l[30m[48;5;250m1[39;49m[25;1H[?12l[?25h[?12;25h[38;39H[?25l[30m[48;5;250m2[39;49m[26;1H[?12l[?25h[?12;25h[38;39H[?25l[30m[48;5;250m3[39;49m[27;1H[?12l[?25h[?12;25h[38;39H[?25l[30m[48;5;250m4[39;49m[28;1H[?12l[?25h[?12;25h[38;39H[?25l[30m[48;5;250m5[39;49m[29;1H[?12l[?25h[?12;25h[38;39H[?25l[30m[48;5;250m6[39;49m[30;1H[?12l[?25h[?12;25h[38;39H[?25l[30m[48;5;250m7[39;49m[31;1H[?12l[?25h[?12;25h[38;39H[?25l[30m[48;5;250m8[39;49m[32;1H[?12l[?25h[?12;25h[38;39H[?25l[30m[48;5;250m9[39;49m[33;1H[?12l[?25h[?12;25h[38;38H[?25l[30m[48;5;250m40[39;49m[34;1H[?12l[?25h[?12;25h[38;39H[?25l[30m[48;5;250m1[39;49m[35;1H[?12l[?25h[?12;25h[38;39H[?25l[30m[48;5;250m2[39;49m[36;1H[?12l[?25h[?12;25h[38;39H[?25l[30m[48;5;250m3[39;49m[A[?12l[?25h[?12;25h[1;37r[2;1H[18M[1;39r[20;1H[?25l  SYMENT               0x0000000000000018[K
  DEBUG                0x0000000000000000[K
  PLTGOT               0x0000000000004000[K
  PLTRELSZ             0x0000000000000030[K
  PLTREL               0x0000000000000007[K
  JMPREL               0x0000000000000590[K
  RELA                 0x00000000000004d0[K
  RELASZ               0x00000000000000c0[K
  RELAENT              0x0000000000000018[K
  FLAGS_1              0x0000000008000000[K
  VERNEED              0x00000000000004a0[K
  VERNEEDNUM           0x0000000000000001[K
  VERSYM               0x000000000000048e[K
  RELACOUNT            0x0000000000000003[K
[K
Version References:[K
  required from libc.so.6:[K
    0x0d696917 0x00 03 GLIBC_2.7[K
[C[30m[48;5;250m5% L44[39;49m[20;1H[?12l[?25h[?12;25h[38;39H[?25l[30m[48;5;250m5[39;49m[21;1H[?12l[?25h[?12;25h[38;39H[?25l[30m[48;5;250m6[39;49m[22;1H[?12l[?25h[?12;25h[38;39H[?25l[30m[48;5;250m7[39;49m[23;1H[?12l[?25h[?12;25h[38;39H[?25l[30m[48;5;250m8[39;49m[24;1H[?12l[?25h[?12;25h[38;39H[?25l[30m[48;5;250m9[39;49m[25;1H[?12l[?25h[?12;25h[38;38H[?25l[30m[48;5;250m50[39;49m[26;1H[?12l[?25h[?12;25h[38;39H[?25l[30m[48;5;250m1[39;49m[27;1H[?12l[?25h[?12;25h[38;39H[?25l[30m[48;5;250m2[39;49m[28;1H[?12l[?25h[?12;25h[38;39H[?25l[30m[48;5;250m3[39;49m[29;1H[?12l[?25h[?12;25h[38;39H[?25l[30m[48;5;250m4[39;49m[30;1H[?12l[?25h[?12;25h[38;39H[?25l[30m[48;5;250m5[39;49m[31;1H[?12l[?25h[?12;25h[38;39H[?25l[30m[48;5;250m6[39;49m[32;1H[?12l[?25h[?12;25h[38;39H[?25l[30m[48;5;250m7[39;49m[33;1H[?12l[?25h[?12;25h[38;39H[?25l[30m[48;5;250m8[39;49m[34;1H[?12l[?25h[?12;25h[38;39H[?25l[30m[48;5;250m9[39;49m[35;1H[?12l[?25h[?12;25h[38;38H[?25l[30m[48;5;250m60[39;49m[36;1H[?12l[?25h[?12;25h[38;39H[?25l[30m[48;5;250m1[39;49m[A[?12l[?25h[?12;25h[1;37r[2;1H[18M[1;39r[20;1H[?25l    0x09691a75 0x00 02 GLIBC_2.2.5[K
[K
Sections:[K
Idx Name          Size      VMA               LMA               File off  Algn[K
  0 .interp       0000001c  00000000000002a8  00000000000002a8  000002a8  2**0[K
                  CONTENTS, ALLOC, LOAD, READONLY, DATA[K
  1 .note.ABI-tag 00000020  00000000000002c4  00000000000002c4  000002c4  2**2[K
                  CONTENTS, ALLOC, LOAD, READONLY, DATA[K
  2 .note.gnu.build-id 00000024  00000000000002e4  00000000000002e4  000002e4  2**\
[A
2[K
                  CONTENTS, ALLOC, LOAD, READONLY, DATA[K
  3 .gnu.hash     00000024  0000000000000308  0000000000000308  00000308  2**3[K
                  CONTENTS, ALLOC, LOAD, READONLY, DATA[K
  4 .dynsym       000000c0  0000000000000330  0000000000000330  00000330  2**3[K
                  CONTENTS, ALLOC, LOAD, READONLY, DATA[K
  5 .dynstr       0000009d  00000000000003f0  00000000000003f0  000003f0  2**0[K
                  CONTENTS, ALLOC, LOAD, READONLY, DATA[K
  6 .gnu.version  00000010  000000000000048e  000000000000048e  0000048e  2**1[K[38;34H[30m[48;5;250m6% L62[39;49m[20;1H[?12l[?25h[?12;25h[38;39H[?25l[30m[48;5;250m3[39;49m[21;1H[?12l[?25h[?12;25h[38;39H[?25l[30m[48;5;250m4[39;49m[22;1H[?12l[?25h[?12;25h[38;39H[?25l[30m[48;5;250m5[39;49m[23;1H[?12l[?25h[?12;25h[38;39H[?25l[30m[48;5;250m6[39;49m[24;1H[?12l[?25h[?12;25h[38;39H[?25l[30m[48;5;250m7[39;49m[25;1H[?12l[?25h[?12;25h[38;39H[?25l[30m[48;5;250m8[39;49m[26;1H[?12l[?25h[?12;25h[38;39H[?25l[30m[48;5;250m9[39;49m[27;1H[?12l[?25h[?12;25h[38;38H[?25l[30m[48;5;250m70[39;49m[28;1H[?12l[?25h[?12;25h
[38;39H[?25l[30m[48;5;250m1[39;49m[30;1H[?12l[?25h[?12;25h[38;39H[?25l[30m[48;5;250m2[39;49m[31;1H[?12l[?25h[?12;25h[38;39H[?25l[30m[48;5;250m3[39;49m[32;1H[?12l[?25h[?12;25h[38;39H[?25l[30m[48;5;250m4[39;49m[33;1H[?12l[?25h[?12;25h[38;39H[?25l[30m[48;5;250m5[39;49m[34;1H[?12l[?25h[?12;25h[38;39H[?25l[30m[48;5;250m6[39;49m[35;1H[?12l[?25h[?12;25h[38;39H[?25l[30m[48;5;250m7[39;49m[36;1H[?12l[?25h[?12;25h[38;39H[?25l[30m[48;5;250m8[39;49m[A[?12l[?25h[?12;25h[1;37r[2;1H[18M[1;39r[20;1H[?25l                  CONTENTS, ALLOC, LOAD, READONLY, DATA[K
  7 .gnu.version_r 00000030  00000000000004a0  00000000000004a0  000004a0  2**3[K
                  CONTENTS, ALLOC, LOAD, READONLY, DATA[K
  8 .rela.dyn     000000c0  00000000000004d0  00000000000004d0  000004d0  2**3[K
                  CONTENTS, ALLOC, LOAD, READONLY, DATA[K
  9 .rela.plt     00000030  0000000000000590  0000000000000590  00000590  2**3[K
                  CONTENTS, ALLOC, LOAD, READONLY, DATA[K
 10 .init         00000017  0000000000001000  0000000000001000  00001000  2**2[K
                  CONTENTS, ALLOC, LOAD, READONLY, CODE[K
 11 .plt          00000030  0000000000001020  0000000000001020  00001020  2**4[K
                  CONTENTS, ALLOC, LOAD, READONLY, CODE[K
 12 .plt.got      00000008  0000000000001050  0000000000001050  00001050  2**3[K
                  CONTENTS, ALLOC, LOAD, READONLY, CODE[K
 13 .text         000001b1  0000000000001060  0000000000001060  00001060  2**4[K
                  CONTENTS, ALLOC, LOAD, READONLY, CODE[K
 14 .fini         00000009  0000000000001214  0000000000001214  00001214  2**2[K
                  CONTENTS, ALLOC, LOAD, READONLY, CODE[K
 15 .rodata       0000001c  0000000000002000  0000000000002000  00002000  2**2[K[38;34H[30m[48;5;250m8% L79[39;49m[20;1H[?12l[?25h[?12;25h[38;38H[?25l[30m[48;5;250m80[39;49m[21;1H[?12l[?25h[?12;25h[38;39H[?25l[30m[48;5;250m1[39;49m[22;1H[?12l[?25h[?12;25h[38;39H[?25l[30m[48;5;250m2[39;49m[23;1H[?12l[?25h[?12;25h[38;39H[?25l[30m[48;5;250m3[39;49m[24;1H[?12l[?25h[?12;25h[38;39H[?25l[30m[48;5;250m4[39;49m[25;1H[?12l[?25h[?12;25h[38;39H[?25l[30m[48;5;250m5[39;49m[26;1H[?12l[?25h[?12;25h[38;39H[?25l[30m[48;5;250m6[39;49m[27;1H[?12l[?25h[?12;25h[38;39H[?25l[30m[48;5;250m7[39;49m[28;1H[?12l[?25h[?12;25h[38;39H[?25l[30m[48;5;250m8[39;49m[29;1H[?12l[?25h[?12;25h[38;39H[?25l[30m[48;5;250m9[39;49m[30;1H[?12l[?25h[?12;25h[38;38H[?25l[30m[48;5;250m90[39;49m[31;1H[?12l[?25h[?12;25h[38;39H[?25l[30m[48;5;250m1[39;49m[32;1H[?12l[?25h[?12;25h[38;39H[?25l[30m[48;5;250m2[39;49m[33;1H[?12l[?25h[?12;25h[38;39H[?25l[30m[48;5;250m3[39;49m[34;1H[?12l[?25h[?12;25h[38;39H[?25l[30m[48;5;250m4[39;49m[35;1H[?12l[?25h[?12;25h[38;39H[?25l[30m[48;5;250m5[39;49m[36;1H[?12l[?25h[?12;25h[38;39H[?25l[30m[48;5;250m6[39;49m[A[?12l[?25h[?12;25h[1;37r[2;1H[18M[1;39r[20;1H[?25l                  CONTENTS, ALLOC, LOAD, READONLY, DATA[K
 16 .eh_frame_hdr 00000044  000000000000201c  000000000000201c  0000201c  2**2[K
                  CONTENTS, ALLOC, LOAD, READONLY, DATA[K
 17 .eh_frame     00000128  0000000000002060  0000000000002060  00002060  2**3[K
                  CONTENTS, ALLOC, LOAD, READONLY, DATA[K
 18 .init_array   00000008  0000000000003de8  0000000000003de8  00002de8  2**3[K
                  CONTENTS, ALLOC, LOAD, DATA[K
 19 .fini_array   00000008  0000000000003df0  0000000000003df0  00002df0  2**3[K
                  CONTENTS, ALLOC, LOAD, DATA[K
 20 .dynamic      000001e0  0000000000003df8  0000000000003df8  00002df8  2**3[K
                  CONTENTS, ALLOC, LOAD, DATA[K
 21 .got          00000028  0000000000003fd8  0000000000003fd8  00002fd8  2**3[K
                  CONTENTS, ALLOC, LOAD, DATA[K
 22 .got.plt      00000028  0000000000004000  0000000000004000  00003000  2**3[K
                  CONTENTS, ALLOC, LOAD, DATA[K
 23 .data         00000010  0000000000004028  0000000000004028  00003028  2**3[K
                  CONTENTS, ALLOC, LOAD, DATA[K
 24 .bss          00000008  0000000000004038  0000000000004038  00003038  2**2[K
				[30m[48;5;250m10% L97[39;49m[20;1H[?12l[?25h[?12;25h[38;39H[?25l[30m[48;5;250m8[39;49m[21;1H[?12l[?25h[?12;25h[38;39H[?25l[30m[48;5;250m9[39;49m[22;1H[?12l[?25h[?12;25h[38;38H[?25l[30m[48;5;250m100[39;49m[23;1H[?12l[?25h[?12;25h[38;40H[?25l[30m[48;5;250m1[39;49m[24;1H[?12l[?25h[?12;25h[38;40H[?25l[30m[48;5;250m2[39;49m[25;1H[?12l[?25h[?12;25h[38;40H[?25l[30m[48;5;250m3[39;49m[26;1H[?12l[?25h[?12;25h[38;40H[?25l[30m[48;5;250m4[39;49m[27;1H[?12l[?25h[?12;25h[38;40H[?25l[30m[48;5;250m5[39;49m[28;1H[?12l[?25h[?12;25h[38;40H[?25l[30m[48;5;250m6[39;49m[29;1H[?12l[?25h[?12;25h[38;40H[?25l[30m[48;5;250m7[39;49m[30;1H[?12l[?25h[?12;25h[38;40H[?25l[30m[48;5;250m8[39;49m[31;1H[?12l[?25h[?12;25h[38;40H[?25l[30m[48;5;250m9[39;49m[32;1H[?12l[?25h[?12;25h[38;39H[?25l[30m[48;5;250m10[39;49m[33;1H[?12l[?25h[?12;25h[38;40H[?25l[30m[48;5;250m1[39;49m[34;1H[?12l[?25h[?12;25h[38;40H[?25l[30m[48;5;250m2[39;49m[35;1H[?12l[?25h[?12;25h[38;40H[?25l[30m[48;5;250m3[39;49m[36;1H[?12l[?25h[?12;25h[38;40H[?25l[30m[48;5;250m4[39;49m[A[?12l[?25h[?12;25h[1;37r[3;1H[18M[1;39r[20;1H[?25l                  ALLOC[K
 25 .comment      00000046  0000000000000000  0000000000000000  00003038  2**0[K
                  CONTENTS, READONLY[K
 26 .debug_aranges 00000060  0000000000000000  0000000000000000  0000307e  2**0[K
                  CONTENTS, READONLY, DEBUGGING[K
 27 .debug_pubnames 0000001e  0000000000000000  0000000000000000  000030de  2**0[K
                  CONTENTS, READONLY, DEBUGGING[K
 28 .debug_info   00000351  0000000000000000  0000000000000000  000030fc  2**0[K
                  CONTENTS, READONLY, DEBUGGING[K
 29 .debug_abbrev 0000011f  0000000000000000  0000000000000000  0000344d  2**0[K
                  CONTENTS, READONLY, DEBUGGING[K
 30 .debug_line   00000150  0000000000000000  0000000000000000  0000356c  2**0[K
                  CONTENTS, READONLY, DEBUGGING[K
 31 .debug_str    00000294  0000000000000000  0000000000000000  000036bc  2**0[K
                  CONTENTS, READONLY, DEBUGGING[K
 32 .debug_loc    00000060  0000000000000000  0000000000000000  00003950  2**0[K
                  CONTENTS, READONLY, DEBUGGING[K
 33 .debug_ranges 00000030  0000000000000000  0000000000000000  000039b0  2**0[K[38;34H[30m[48;5;250m3% L115[39;49m[20;1H[?12l[?25h[?12;25h[38;40H[?25l[30m[48;5;250m6[39;49m[21;1H[?12l[?25h[?12;25h[38;40H[?25l[30m[48;5;250m7[39;49m[22;1H[?12l[?25h[?12;25h[38;40H[?25l[30m[48;5;250m8[39;49m[23;1H[?12l[?25h[?12;25h[38;40H[?25l[30m[48;5;250m9[39;49m[24;1H[?12l[?25h[?12;25h[38;39H[?25l[30m[48;5;250m20[39;49m[25;1H[?12l[?25h[?12;25h[38;40H[?25l[30m[48;5;250m1[39;49m[26;1H[?12l[?25h[?12;25h[38;40H[?25l[30m[48;5;250m2[39;49m[27;1H[?12l[?25h[?12;25h[38;40H[?25l[30m[48;5;250m3[39;49m[28;1H[?12l[?25h[?12;25h[38;40H[?25l[30m[48;5;250m4[39;49m[29;1H[?12l[?25h[?12;25h[38;40H[?25l[30m[48;5;250m5[39;49m[30;1H[?12l[?25h[?12;25h[38;40H[?25l[30m[48;5;250m6[39;49m[31;1H[?12l[?25h[?12;25h[38;40H[?25l[30m[48;5;250m7[39;49m[32;1H[?12l[?25h[?12;25h[38;40H[?25l[30m[48;5;250m8[39;49m[33;1H[?12l[?25h[?12;25h[38;40H[?25l[30m[48;5;250m9[39;49m[34;1H[?12l[?25h[?12;25h[38;39H[?25l[30m[48;5;250m30[39;49m[35;1H[?12l[?25h[?12;25h[38;40H[?25l[30m[48;5;250m1[39;49m[36;1H[?12l[?25h[?12;25h[38;40H[?25l[30m[48;5;250m2[39;49m[A[?12l[?25h[?12;25h[1;37r[2;1H[18M[1;39r[20;1H[?25l                  CONTENTS, READONLY, DEBUGGING[K
SYMBOL TABLE:[K
00000000000002a8 l    d  .interp        0000000000000000              .interp[K
00000000000002c4 l    d  .note.ABI-tag  0000000000000000              .note.ABI-ta\
[A
g[K
00000000000002e4 l    d  .note.gnu.build-id     0000000000000000              .not\
[A
e.gnu.build-id[K
0000000000000308 l    d  .gnu.hash      0000000000000000              .gnu.hash[K
0000000000000330 l    d  .dynsym        0000000000000000              .dynsym[K
00000000000003f0 l    d  .dynstr        0000000000000000              .dynstr[K
000000000000048e l    d  .gnu.version   0000000000000000              .gnu.version[K
00000000000004a0 l    d  .gnu.version_r 0000000000000000              .gnu.version\
[A
_r[K
00000000000004d0 l    d  .rela.dyn      0000000000000000              .rela.dyn[K
0000000000000590 l    d  .rela.plt      0000000000000000              .rela.plt[K
0000000000001000 l    d  .init  0000000000000000              .init[K
0000000000001020 l    d  .plt   0000000000000000              .plt[K
0000000000001050 l    d  .plt.got       0000000000000000              .plt.got[K[38;34H[30m[48;5;250m6% L133[39;49m[20;1H[?12l[?25h[?12;25h[38;40H[?25l[30m[48;5;250m4[39;49m[21;1H[?12l[?25h[?12;25h[38;40H[?25l[30m[48;5;250m5[39;49m[22;1H[?12l[?25h[?12;25h[38;40H[?25l[30m[48;5;250m6[39;49m[23;1H[?12l[?25h[?12;25h
[38;40H[?25l[30m[48;5;250m7[39;49m[25;1H[?12l[?25h[?12;25h
[38;40H[?25l[30m[48;5;250m8[39;49m[27;1H[?12l[?25h[?12;25h[38;40H[?25l[30m[48;5;250m9[39;49m[28;1H[?12l[?25h[?12;25h[38;39H[?25l[30m[48;5;250m40[39;49m[29;1H[?12l[?25h[?12;25h[38;40H[?25l[30m[48;5;250m1[39;49m[30;1H[?12l[?25h[?12;25h[38;40H[?25l[30m[48;5;250m2[39;49m[31;1H[?12l[?25h[?12;25h
[38;40H[?25l[30m[48;5;250m3[39;49m[33;1H[?12l[?25h[?12;25h[38;40H[?25l[30m[48;5;250m4[39;49m[34;1H[?12l[?25h[?12;25h[38;40H[?25l[30m[48;5;250m5[39;49m[35;1H[?12l[?25h[?12;25h[38;40H[?25l[30m[48;5;250m6[39;49m[36;1H[?12l[?25h[?12;25h[38;40H[?25l[30m[48;5;250m7[39;49m[A[?12l[?25h[?12;25h[1;37r[2;1H[18M[1;39r[20;1H[?25l0000000000001060 l    d  .text  0000000000000000              .text[K
0000000000001214 l    d  .fini  0000000000000000              .fini[K
0000000000002000 l    d  .rodata        0000000000000000              .rodata[K
000000000000201c l    d  .eh_frame_hdr  0000000000000000              .eh_frame_hd\
[A
r[K
0000000000002060 l    d  .eh_frame      0000000000000000              .eh_frame[K
0000000000003de8 l    d  .init_array    0000000000000000              .init_array[K
0000000000003df0 l    d  .fini_array    0000000000000000              .fini_array[K
0000000000003df8 l    d  .dynamic       0000000000000000              .dynamic[K
0000000000003fd8 l    d  .got   0000000000000000              .got[K
0000000000004000 l    d  .got.plt       0000000000000000              .got.plt[K
0000000000004028 l    d  .data  0000000000000000              .data[K
0000000000004038 l    d  .bss   0000000000000000              .bss[K
0000000000000000 l    d  .comment       0000000000000000              .comment[K
0000000000000000 l    d  .debug_aranges 0000000000000000              .debug_arang\
[A
es[K
0000000000000000 l    d  .debug_pubnames        0000000000000000              .deb\
[A
ug_pubnames[K[38;34H[30m[48;5;250m9% L148[39;49m[20;1H[?12l[?25h[?12;25h[38;40H[?25l[30m[48;5;250m9[39;49m[21;1H[?12l[?25h[?12;25h[38;39H[?25l[30m[48;5;250m50[39;49m[22;1H[?12l[?25h[?12;25h[38;40H[?25l[30m[48;5;250m1[39;49m[23;1H[?12l[?25h[?12;25h
[38;40H[?25l[30m[48;5;250m2[39;49m[25;1H[?12l[?25h[?12;25h[38;40H[?25l[30m[48;5;250m3[39;49m[26;1H[?12l[?25h[?12;25h[38;40H[?25l[30m[48;5;250m4[39;49m[27;1H[?12l[?25h[?12;25h[38;40H[?25l[30m[48;5;250m5[39;49m[28;1H[?12l[?25h[?12;25h[38;40H[?25l[30m[48;5;250m6[39;49m[29;1H[?12l[?25h[?12;25h[38;40H[?25l[30m[48;5;250m7[39;49m[30;1H[?12l[?25h[?12;25h[38;40H[?25l[30m[48;5;250m8[39;49m[31;1H[?12l[?25h[?12;25h[38;40H[?25l[30m[48;5;250m9[39;49m[32;1H[?12l[?25h[?12;25h[38;39H[?25l[30m[48;5;250m60[39;49m[33;1H[?12l[?25h[?12;25h[38;40H[?25l[30m[48;5;250m1[39;49m[34;1H[?12l[?25h[?12;25h
[38;40H[?25l[30m[48;5;250m2[39;49m[36;1H[?12l[?25h[?12;25h
[1;37r[2;1H[18M[1;39r[20;1H[?25l0000000000000000 l    d  .debug_info    0000000000000000              .debug_info[K
0000000000000000 l    d  .debug_abbrev  0000000000000000              .debug_abbre\
[A
v[K
0000000000000000 l    d  .debug_line    0000000000000000              .debug_line[K
0000000000000000 l    d  .debug_str     0000000000000000              .debug_str[K
0000000000000000 l    d  .debug_loc     0000000000000000              .debug_loc[K
0000000000000000 l    d  .debug_ranges  0000000000000000              .debug_range\
[A
s[K
0000000000000000 l    df *ABS*  0000000000000000              crtstuff.c[K
0000000000001090 l     F .text  0000000000000000              deregister_tm_clones[K
00000000000010c0 l     F .text  0000000000000000              register_tm_clones[K
0000000000001100 l     F .text  0000000000000000              __do_global_dtors_au\
[A
x[K
0000000000004038 l     O .bss   0000000000000001              completed.7325[K
0000000000003df0 l     O .fini_array    0000000000000000              __do_global_\
[A
dtors_aux_fini_array_entry[K
0000000000001140 l     F .text  0000000000000000              frame_dummy[K
0000000000003de8 l     O .init_array    0000000000000000              __frame_dumm\
[A
				[30m[48;5;250m21% L163[39;49m[20;1H[?12l[?25h[?12;25h[38;40H[?25l[30m[48;5;250m4[39;49m[21;1H[?12l[?25h[?12;25h
[38;40H[?25l[30m[48;5;250m5[39;49m[23;1H[?12l[?25h[?12;25h[38;40H[?25l[30m[48;5;250m6[39;49m[24;1H[?12l[?25h[?12;25h[38;40H[?25l[30m[48;5;250m7[39;49m[25;1H[?12l[?25h[?12;25h[38;40H[?25l[30m[48;5;250m8[39;49m[26;1H[?12l[?25h[?12;25h
[38;40H[?25l[30m[48;5;250m9[39;49m[28;1H[?12l[?25h[?12;25h[38;39H[?25l[30m[48;5;250m70[39;49m[29;1H[?12l[?25h[?12;25h[38;40H[?25l[30m[48;5;250m1[39;49m[30;1H[?12l[?25h[?12;25h[38;40H[?25l[30m[48;5;250m2[39;49m[31;1H[?12l[?25h[?12;25h
[38;40H[?25l[30m[48;5;250m3[39;49m[33;1H[?12l[?25h[?12;25h[38;40H[?25l[30m[48;5;250m4[39;49m[34;1H[?12l[?25h[?12;25h
[38;40H[?25l[30m[48;5;250m5[39;49m[36;1H[?12l[?25h[?12;25h[38;40H[?25l[30m[48;5;250m6[39;49m[A[?12l[?25h[?12;25h[1;37r[2;1H[18M[1;39r[20;1H[?25ly_init_array_entry[K
0000000000000000 l    df *ABS*  0000000000000000              identify.c[K
0000000000000000 l    df *ABS*  0000000000000000              mystery.c[K
0000000000000000 l    df *ABS*  0000000000000000              crtstuff.c[K
0000000000002184 l     O .eh_frame      0000000000000000              __FRAME_END_\
[A
_[K
0000000000000000 l    df *ABS*  0000000000000000[K
0000000000003df0 l       .init_array    0000000000000000              __init_array\
[A
_end[K
0000000000003df8 l     O .dynamic       0000000000000000              _DYNAMIC[K
0000000000003de8 l       .init_array    0000000000000000              __init_array\
[A
_start[K
000000000000201c l       .eh_frame_hdr  0000000000000000              __GNU_EH_FRA\
[A
ME_HDR[K
0000000000004000 l     O .got.plt       0000000000000000              _GLOBAL_OFFS\
[A
ET_TABLE_[K
0000000000001000 l     F .init  0000000000000000              _init[K
0000000000001210 g     F .text  0000000000000001              __libc_csu_fini[K[38;34H[30m[48;5;250m4[39;49m[20;1H[?12l[?25h[?12;25h[38;40H[?25l[30m[48;5;250m7[39;49m[21;1H[?12l[?25h[?12;25h[38;40H[?25l[30m[48;5;250m8[39;49m[22;1H[?12l[?25h[?12;25h[38;40H[?25l[30m[48;5;250m9[39;49m[23;1H[?12l[?25h[?12;25h[38;39H[?25l[30m[48;5;250m80[39;49m[24;1H[?12l[?25h[?12;25h
[38;40H[?25l[30m[48;5;250m1[39;49m[26;1H[?12l[?25h[?12;25h[38;40H[?25l[30m[48;5;250m2[39;49m[27;1H[?12l[?25h[?12;25h
[38;40H[?25l[30m[48;5;250m3[39;49m[29;1H[?12l[?25h[?12;25h[38;40H[?25l[30m[48;5;250m4[39;49m[30;1H[?12l[?25h[?12;25h
[38;40H[?25l[30m[48;5;250m5[39;49m[32;1H[?12l[?25h[?12;25h
[38;40H[?25l[30m[48;5;250m6[39;49m[34;1H[?12l[?25h[?12;25h
[38;40H[?25l[30m[48;5;250m7[39;49m[36;1H[?12l[?25h[?12;25h[38;40H[?25l[30m[48;5;250m8[39;49m[A[?12l[?25h[?12;25h[1;37r[2;1H[18M[1;39r[20;1H[?25l0000000000000000  w      *UND*  0000000000000000              _ITM_deregisterTMClo\
[A
neTable[K
0000000000004028  w      .data  0000000000000000              data_start[K
0000000000004038 g       .data  0000000000000000              _edata[K
0000000000001214 g     F .fini  0000000000000000              .hidden _fini[K
0000000000000000       F *UND*  0000000000000000              printf@@GLIBC_2.2.5[K
0000000000000000       F *UND*  0000000000000000              __libc_start_main@@G\
[A
LIBC_2.2.5[K
0000000000004028 g       .data  0000000000000000              __data_start[K
0000000000000000  w      *UND*  0000000000000000              __gmon_start__[K
0000000000004030 g     O .data  0000000000000000              .hidden __dso_handle[K
0000000000002000 g     O .rodata        0000000000000004              _IO_stdin_us\
[A
ed[K
00000000000011b0 g     F .text  000000000000005d              __libc_csu_init[K
0000000000004040 g       .bss   0000000000000000              _end[K
0000000000001060 g     F .text  000000000000002b              _start[K
0000000000004038 g       .bss   0000000000000000              __bss_start[K
0000000000001145 g     F .text  0000000000000056              main[K[38;34H[30m[48;5;250m7% L189[39;49m[20;1H[?12l[?25h[?12;25h
[38;39H[?25l[30m[48;5;250m90[39;49m[22;1H[?12l[?25h[?12;25h[38;40H[?25l[30m[48;5;250m1[39;49m[23;1H[?12l[?25h[?12;25h[38;40H[?25l[30m[48;5;250m2[39;49m[24;1H[?12l[?25h[?12;25h[38;40H[?25l[30m[48;5;250m3[39;49m[25;1H[?12l[?25h[?12;25h[38;40H[?25l[30m[48;5;250m4[39;49m[26;1H[?12l[?25h[?12;25h
[38;40H[?25l[30m[48;5;250m5[39;49m[28;1H[?12l[?25h[?12;25h[38;40H[?25l[30m[48;5;250m6[39;49m[29;1H[?12l[?25h[?12;25h[38;40H[?25l[30m[48;5;250m7[39;49m[30;1H[?12l[?25h[?12;25h[38;40H[?25l[30m[48;5;250m8[39;49m[31;1H[?12l[?25h[?12;25h
[38;40H[?25l[30m[48;5;250m9[39;49m[33;1H[?12l[?25h[?12;25h[38;38H[?25l[30m[48;5;250m200[39;49m[34;1H[?12l[?25h[?12;25h[38;40H[?25l[30m[48;5;250m1[39;49m[35;1H[?12l[?25h[?12;25h[38;40H[?25l[30m[48;5;250m2[39;49m[36;1H[?12l[?25h[?12;25h[38;40H[?25l[30m[48;5;250m3[39;49m[A[?12l[?25h[?12;25h[1;37r[2;1H[18M[1;39r[20;1H[?25l0000000000000000       F *UND*  0000000000000000              __isoc99_scanf@@GLIB\
[A
C_2.7[K
000000000000119c g     F .text  0000000000000011              mystery[K
0000000000004038 g     O .data  0000000000000000              .hidden __TMC_END__[K
0000000000000000  w      *UND*  0000000000000000              _ITM_registerTMClone\
[A
Table[K
0000000000000000  w    F *UND*  0000000000000000              __cxa_finalize@@GLIB\
[A
C_2.2.5[K
[K
[K
Contents of section .interp:[K
 02a8 2f6c6962 36342f6c 642d6c69 6e75782d  /lib64/ld-linux-[K
 02b8 7838362d 36342e73 6f2e3200           x86-64.so.2.[K
Contents of section .note.ABI-tag:[K
 02c4 04000000 10000000 01000000 474e5500  ............GNU.[K
 02d4 00000000 03000000 02000000 00000000  ................[K
Contents of section .note.gnu.build-id:[K
 02e4 04000000 14000000 03000000 474e5500  ............GNU.[K[38;34H[30m[48;5;250m9% L204[39;49m[20;1H[?12l[?25h[?12;25h
[38;40H[?25l[30m[48;5;250m5[39;49m[22;1H[?12l[?25h[?12;25h[38;40H[?25l[30m[48;5;250m6[39;49m[23;1H[?12l[?25h[?12;25h[38;40H[?25l[30m[48;5;250m7[39;49m[24;1H[?12l[?25h[?12;25h
[38;40H[?25l[30m[48;5;250m8[39;49m[26;1H[?12l[?25h[?12;25h
[38;40H[?25l[30m[48;5;250m9[39;49m[28;1H[?12l[?25h[?12;25h[38;39H[?25l[30m[48;5;250m10[39;49m[29;1H[?12l[?25h[?12;25h[38;40H[?25l[30m[48;5;250m1[39;49m[30;1H[?12l[?25h[?12;25h[38;40H[?25l[30m[48;5;250m2[39;49m[31;1H[?12l[?25h[?12;25h[38;40H[?25l[30m[48;5;250m3[39;49m[32;1H[?12l[?25h[?12;25h[38;40H[?25l[30m[48;5;250m4[39;49m[33;1H[?12l[?25h[?12;25h[38;40H[?25l[30m[48;5;250m5[39;49m[34;1H[?12l[?25h[?12;25h[38;40H[?25l[30m[48;5;250m6[39;49m[35;1H[?12l[?25h[?12;25h[38;40H[?25l[30m[48;5;250m7[39;49m[36;1H[?12l[?25h[?12;25h[38;40H[?25l[30m[48;5;250m8[39;49m[A[?12l[?25h[?12;25h[1;37r[2;1H[18M[1;39r[20;1H[?25l 02f4 359290e3 40f99769 13f8318c c491954d  5...@..i..1....M[K
 0304 6f5b2f5a                             o[/Z[K
Contents of section .gnu.hash:[K
 0308 02000000 07000000 01000000 06000000  ................[K
 0318 00008100 00000000 07000000 00000000  ................[K
 0328 d165ce6d                             .e.m[K
Contents of section .dynsym:[K
 0330 00000000 00000000 00000000 00000000  ................[K
 0340 00000000 00000000 58000000 20000000  ........X... ...[K
 0350 00000000 00000000 00000000 00000000  ................[K
 0360 1a000000 12000000 00000000 00000000  ................[K
 0370 00000000 00000000 30000000 12000000  ........0.......[K
 0380 00000000 00000000 00000000 00000000  ................[K
 0390 74000000 20000000 00000000 00000000  t... ...........[K
 03a0 00000000 00000000 0b000000 12000000  ................[K
 03b0 00000000 00000000 00000000 00000000  ................[K
 03c0 83000000 20000000 00000000 00000000  .... ...........[K
 03d0 00000000 00000000 21000000 22000000  ........!..."...[K
				[30m[48;5;250m32% L219[39;49m[20;1H[?12l[?25h[?12;25h[38;39H[?25l[30m[48;5;250m20[39;49m[21;1H[?12l[?25h[?12;25h[38;40H[?25l[30m[48;5;250m1[39;49m[22;1H[?12l[?25h[?12;25h[38;40H[?25l[30m[48;5;250m2[39;49m[23;1H[?12l[?25h[?12;25h[38;40H[?25l[30m[48;5;250m3[39;49m[24;1H[?12l[?25h[?12;25h[38;40H[?25l[30m[48;5;250m4[39;49m[25;1H[?12l[?25h[?12;25h[38;40H[?25l[30m[48;5;250m5[39;49m[26;1H[?12l[?25h[?12;25h[38;40H[?25l[30m[48;5;250m6[39;49m[27;1H[?12l[?25h[?12;25h[38;40H[?25l[30m[48;5;250m7[39;49m[28;1H[?12l[?25h[?12;25h[38;40H[?25l[30m[48;5;250m8[39;49m[29;1H[?12l[?25h[?12;25h[38;40H[?25l[30m[48;5;250m9[39;49m[30;1H[?12l[?25h[?12;25h[38;39H[?25l[30m[48;5;250m30[39;49m[31;1H[?12l[?25h[?12;25h[38;40H[?25l[30m[48;5;250m1[39;49m[32;1H[?12l[?25h[?12;25h[38;40H[?25l[30m[48;5;250m2[39;49m[33;1H[?12l[?25h[?12;25h[38;40H[?25l[30m[48;5;250m3[39;49m[34;1H[?12l[?25h[?12;25h[38;40H[?25l[30m[48;5;250m4[39;49m[35;1H[?12l[?25h[?12;25h[38;40H[?25l[30m[48;5;250m5[39;49m[36;1H[?12l[?25h[?12;25h[38;40H[?25l[30m[48;5;250m6[39;49m[A[?12l[?25h[?12;25h[1;37r[2;1H[18M[1;39r[20;1H[?25l 03e0 00000000 00000000 00000000 00000000  ................[K
Contents of section .dynstr:[K
 03f0 006c6962 632e736f 2e36005f 5f69736f  .libc.so.6.__iso[K
 0400 6339395f 7363616e 66007072 696e7466  c99_scanf.printf[K
 0410 005f5f63 78615f66 696e616c 697a6500  .__cxa_finalize.[K
 0420 5f5f6c69 62635f73 74617274 5f6d6169  __libc_start_mai[K
 0430 6e00474c 4942435f 322e3700 474c4942  n.GLIBC_2.7.GLIB[K
 0440 435f322e 322e3500 5f49544d 5f646572  C_2.2.5._ITM_der[K
 0450 65676973 74657254 4d436c6f 6e655461  egisterTMCloneTa[K
 0460 626c6500 5f5f676d 6f6e5f73 74617274  ble.__gmon_start[K
 0470 5f5f005f 49544d5f 72656769 73746572  __._ITM_register[K
 0480 544d436c 6f6e6554 61626c65 00        TMCloneTable.[K
Contents of section .gnu.version:[K
 048e 00000000 02000200 00000300 00000200  ................[K
Contents of section .gnu.version_r:[K
 04a0 01000200 01000000 10000000 00000000  ................[K
 04b0 1769690d 00000300 42000000 10000000  .ii.....B.......[K
 04c0 751a6909 00000200 4c000000 00000000  u.i.....L.......[K[38;34H[30m[48;5;250m3% L237[39;49m[20;1H[?12l[?25h[?12;25h[38;40H[?25l[30m[48;5;250m8[39;49m[21;1H[?12l[?25h[?12;25h[38;40H[?25l[30m[48;5;250m9[39;49m[22;1H[?12l[?25h[?12;25h[38;39H[?25l[30m[48;5;250m42[39;49m[25;1H[?12l[?25h[?12;25h[38;40H[?25l[30m[48;5;250m3[39;49m[26;1H[?12l[?25h[?12;25h[38;40H[?25l[30m[48;5;250m4[39;49m[27;1H[?12l[?25h[?12;25h[38;40H[?25l[30m[48;5;250m5[39;49m[28;1H[?12l[?25h[?12;25h[38;40H[?25l[30m[48;5;250m6[39;49m[29;1H[?12l[?25h[?12;25h[38;40H[?25l[30m[48;5;250m7[39;49m[30;1H[?12l[?25h[?12;25h[38;40H[?25l[30m[48;5;250m8[39;49m[31;1H[?12l[?25h[?12;25h[38;40H[?25l[30m[48;5;250m9[39;49m[32;1H[?12l[?25h[?12;25h[38;39H[?25l[30m[48;5;250m50[39;49m[33;1H[?12l[?25h[?12;25h[38;40H[?25l[30m[48;5;250m1[39;49m[34;1H[?12l[?25h[?12;25h[38;40H[?25l[30m[48;5;250m2[39;49m[35;1H[?12l[?25h[?12;25h[38;40H[?25l[30m[48;5;250m3[39;49m[36;1H[?12l[?25h[?12;25h[38;40H[?25l[30m[48;5;250m4[39;49m[A[?12l[?25h[?12;25h[1;37r[2;1H[18M[1;39r[20;1H[?25lContents of section .rela.dyn:[K
 04d0 e83d0000 00000000 08000000 00000000  .=..............[K
 04e0 40110000 00000000 f03d0000 00000000  @........=......[K
 04f0 08000000 00000000 00110000 00000000  ................[K
 0500 30400000 00000000 08000000 00000000  0@..............[K
 0510 30400000 00000000 d83f0000 00000000  0@.......?......[K
 0520 06000000 01000000 00000000 00000000  ................[K
 0530 e03f0000 00000000 06000000 03000000  .?..............[K
 0540 00000000 00000000 e83f0000 00000000  .........?......[K
 0550 06000000 04000000 00000000 00000000  ................[K
 0560 f03f0000 00000000 06000000 06000000  .?..............[K
 0570 00000000 00000000 f83f0000 00000000  .........?......[K
 0580 06000000 07000000 00000000 00000000  ................[K
Contents of section .rela.plt:[K
 0590 18400000 00000000 07000000 02000000  .@..............[K
 05a0 00000000 00000000 20400000 00000000  ........ @......[K
 05b0 07000000 05000000 00000000 00000000  ................[K
Contents of section .init:[K[38;34H[30m[48;5;250m6% L255[39;49m[20;1H[?12l[?25h[?12;25h[38;40H[?25l[30m[48;5;250m6[39;49m[21;1H[?12l[?25h[?12;25h[38;40H[?25l[30m[48;5;250m7[39;49m[22;1H[?12l[?25h[?12;25h[38;40H[?25l[30m[48;5;250m8[39;49m[23;1H[?12l[?25h[?12;25h[38;40H[?25l[30m[48;5;250m9[39;49m[24;1H[?12l[?25h[?12;25h[38;39H[?25l[30m[48;5;250m60[39;49m[25;1H[?12l[?25h[?12;25h[38;40H[?25l[30m[48;5;250m1[39;49m[26;1H[?12l[?25h[?12;25h[38;40H[?25l[30m[48;5;250m2[39;49m[27;1H[?12l[?25h[?12;25h[38;40H[?25l[30m[48;5;250m3[39;49m[28;1H[?12l[?25h[?12;25h[38;40H[?25l[30m[48;5;250m4[39;49m[29;1H[?12l[?25h[?12;25h[38;40H[?25l[30m[48;5;250m5[39;49m[30;1H[?12l[?25h[?12;25h[38;40H[?25l[30m[48;5;250m6[39;49m[31;1H[?12l[?25h[?12;25h[38;40H[?25l[30m[48;5;250m7[39;49m[32;1H[?12l[?25h[?12;25h[38;40H[?25l[30m[48;5;250m8[39;49m[33;1H[?12l[?25h[?12;25h[38;40H[?25l[30m[48;5;250m9[39;49m[34;1H[?12l[?25h[?12;25h[38;39H[?25l[30m[48;5;250m70[39;49m[35;1H[?12l[?25h[?12;25h[38;40H[?25l[30m[48;5;250m1[39;49m[36;1H[?12l[?25h[?12;25h[38;40H[?25l[30m[48;5;250m2[39;49m[A[?12l[?25h[?12;25h[1;37r[2;1H[18M[1;39r[20;1H[?25l 1000 4883ec08 488b05dd 2f000048 85c07402  H...H.../..H..t.[K
 1010 ffd04883 c408c3                      ..H....[K
Contents of section .plt:[K
 1020 ff35e22f 0000ff25 e42f0000 0f1f4000  .5./...%./....@.[K
 1030 ff25e22f 00006800 000000e9 e0ffffff  .%./..h.........[K
 1040 ff25da2f 00006801 000000e9 d0ffffff  .%./..h.........[K
Contents of section .plt.got:[K
 1050 ff25a22f 00006690                    .%./..f.[K
Contents of section .text:[K
 1060 31ed4989 d15e4889 e24883e4 f050544c  1.I..^H..H...PTL[K
 1070 8d059a01 0000488d 0d330100 00488d3d  ......H..3...H.=[K
 1080 c1000000 ff15562f 0000f40f 1f440000  ......V/.....D..[K
 1090 488d3da1 2f000048 8d059a2f 00004839  H.=./..H.../..H9[K
 10a0 f8741548 8b052e2f 00004885 c07409ff  .t.H.../..H..t..[K
 10b0 e00f1f80 00000000 c30f1f80 00000000  ................[K
 10c0 488d3d71 2f000048 8d356a2f 00004829  H.=q/..H.5j/..H)[K
 10d0 fe48c1fe 034889f0 48c1e83f 4801c648  .H...H..H..?H..H[K
 10e0 d1fe7414 488b0505 2f000048 85c07408  ..t.H.../..H..t.[K[38;34H[30m[48;5;250m8% L273[39;49m[20;1H[?12l[?25h[?12;25h[38;40H[?25l[30m[48;5;250m4[39;49m[21;1H[?12l[?25h[?12;25h[38;40H[?25l[30m[48;5;250m5[39;49m[22;1H[?12l[?25h[?12;25h[38;40H[?25l[30m[48;5;250m6[39;49m[23;1H[?12l[?25h[?12;25h[38;40H[?25l[30m[48;5;250m7[39;49m[24;1H[?12l[?25h[?12;25h[38;40H[?25l[30m[48;5;250m8[39;49m[25;1H[?12l[?25h[?12;25h[38;40H[?25l[30m[48;5;250m9[39;49m[26;1H[?12l[?25h[?12;25h[38;39H[?25l[30m[48;5;250m80[39;49m[27;1H[?12l[?25h[?12;25h[38;40H[?25l[30m[48;5;250m1[39;49m[28;1H[?12l[?25h[?12;25h[38;40H[?25l[30m[48;5;250m2[39;49m[29;1H[?12l[?25h[?12;25h[38;40H[?25l[30m[48;5;250m3[39;49m[30;1H[?12l[?25h[?12;25h[38;40H[?25l[30m[48;5;250m4[39;49m[31;1H[?12l[?25h[?12;25h[38;40H[?25l[30m[48;5;250m5[39;49m[32;1H[?12l[?25h[?12;25h[38;40H[?25l[30m[48;5;250m6[39;49m[33;1H[?12l[?25h[?12;25h[38;40H[?25l[30m[48;5;250m7[39;49m[34;1H[?12l[?25h[?12;25h[38;40H[?25l[30m[48;5;250m8[39;49m[35;1H[?12l[?25h[?12;25h[38;40H[?25l[30m[48;5;250m9[39;49m[36;1H[?12l[?25h[?12;25h[38;39H[?25l[30m[48;5;250m90[39;49m[A[?12l[?25h[?12;25h[1;37r[2;1H[18M[1;39r[20;1H[?25l 10f0 ffe0660f 1f440000 c30f1f80 00000000  ..f..D..........[K
 1100 803d312f 00000075 2f554883 3de62e00  .=1/...u/UH.=...[K
 1110 00004889 e5740c48 8b3d122f 0000e82d  ..H..t.H.=./...-[K
 1120 ffffffe8 68ffffff c605092f 0000015d  ....h....../...][K
 1130 c30f1f80 00000000 c30f1f80 00000000  ................[K
 1140 e97bffff ff554889 e54883ec 10488d45  .{...UH..H...H.E[K
 1150 f84889c6 488d3da9 0e0000b8 00000000  .H..H.=.........[K
 1160 e8dbfeff ff83f801 7407b800 000000eb  ........t.......[K
 1170 288b45f8 89c7e821 00000089 45fc8b55  (.E....!....E..U[K
 1180 fc8b45fc 89c6488d 3d7a0e00 00b80000  ..E...H.=z......[K
 1190 0000e899 feffffeb b4c9c390 554889e5  ............UH..[K
 11a0 897dfc8b 45fc25ff ff7f00c9 c30f1f00  .}..E.%.........[K
 11b0 41574989 d7415649 89f64155 4189fd41  AWI..AVI..AUA..A[K
 11c0 544c8d25 202c0000 55488d2d 202c0000  TL.% ,..UH.- ,..[K
 11d0 534c29e5 4883ec08 e823feff ff48c1fd  SL).H....#...H..[K
 11e0 03741b31 db0f1f00 4c89fa4c 89f64489  .t.1....L..L..D.[K
 11f0 ef41ff14 dc4883c3 014839dd 75ea4883  .A...H...H9.u.H.[K
 1200 c4085b5d 415c415d 415e415f c30f1f00  ..[]A\A]A^A_....[K
				[30m[48;5;250m41% L291[39;49m[20;1H[?12l[?25h[?12;25h[38;40H[?25l[30m[48;5;250m2[39;49m[21;1H[?12l[?25h[?12;25h[38;40H[?25l[30m[48;5;250m3[39;49m[22;1H[?12l[?25h[?12;25h[38;40H[?25l[30m[48;5;250m4[39;49m[23;1H[?12l[?25h[?12;25h[38;40H[?25l[30m[48;5;250m5[39;49m[24;1H[?12l[?25h[?12;25h[38;40H[?25l[30m[48;5;250m6[39;49m[25;1H[?12l[?25h[?12;25h[38;40H[?25l[30m[48;5;250m7[39;49m[26;1H[?12l[?25h[?12;25h[38;40H[?25l[30m[48;5;250m8[39;49m[27;1H[?12l[?25h[?12;25h[38;40H[?25l[30m[48;5;250m9[39;49m[28;1H[?12l[?25h[?12;25h[38;38H[?25l[30m[48;5;250m300[39;49m[29;1H[?12l[?25h[?12;25h[38;40H[?25l[30m[48;5;250m1[39;49m[30;1H[?12l[?25h[?12;25h[38;40H[?25l[30m[48;5;250m2[39;49m[31;1H[?12l[?25h[?12;25h[38;40H[?25l[30m[48;5;250m3[39;49m[32;1H[?12l[?25h[?12;25h[38;40H[?25l[30m[48;5;250m4[39;49m[33;1H[?12l[?25h[?12;25h[38;40H[?25l[30m[48;5;250m5[39;49m[34;1H[?12l[?25h[?12;25h[38;40H[?25l[30m[48;5;250m6[39;49m[35;1H[?12l[?25h[?12;25h[38;40H[?25l[30m[48;5;250m7[39;49m[36;1H[?12l[?25h[?12;25h[38;40H[?25l[30m[48;5;250m8[39;49m[A[?12l[?25h[?12;25h[1;37r[2;1H[18M[1;39r[20;1H[?25l 1210 c3                                   .[K
Contents of section .fini:[K
 1214 4883ec08 4883c408 c3                 H...H....[K
Contents of section .rodata:[K
 2000 01000200 2578006d 79737465 7279203d  ....%x.mystery =[K
 2010 20256420 28307825 78290a00            %d (0x%x)..[K
Contents of section .eh_frame_hdr:[K
 201c 011b033b 40000000 07000000 04f0ffff  ...;@...........[K
 202c 8c000000 34f0ffff b4000000 44f0ffff  ....4.......D...[K
 203c 5c000000 29f1ffff cc000000 80f1ffff  \...)...........[K
 204c ec000000 94f1ffff 0c010000 f4f1ffff  ................[K
 205c 54010000                             T...[K
Contents of section .eh_frame:[K
 2060 14000000 00000000 017a5200 01781001  .........zR..x..[K
 2070 1b0c0708 90010710 14000000 1c000000  ................[K
 2080 e0efffff 2b000000 00000000 00000000  ....+...........[K
 2090 14000000 00000000 017a5200 01781001  .........zR..x..[K
 20a0 1b0c0708 90010000 24000000 1c000000  ........$.......[K[38;34H[30m[48;5;250m3% L309[39;49m[20;1H[?12l[?25h[?12;25h[38;39H[?25l[30m[48;5;250m10[39;49m[21;1H[?12l[?25h[?12;25h[38;40H[?25l[30m[48;5;250m1[39;49m[22;1H[?12l[?25h[?12;25h[38;62H[?25l[30m[48;5;250m9AM 0.13 [39;49m[22;1H[?12l[?25h[?12;25h[38;40H[?25l[30m[48;5;250m2[39;49m[23;1H[?12l[?25h[?12;25h[38;40H[?25l[30m[48;5;250m3[39;49m[24;1H[?12l[?25h[?12;25h[38;40H[?25l[30m[48;5;250m4[39;49m[25;1H[?12l[?25h[?12;25h[38;40H[?25l[30m[48;5;250m5[39;49m[26;1H[?12l[?25h[?12;25h[38;40H[?25l[30m[48;5;250m6[39;49m[27;1H[?12l[?25h[?12;25h[38;40H[?25l[30m[48;5;250m7[39;49m[28;1H[?12l[?25h[?12;25h[38;40H[?25l[30m[48;5;250m8[39;49m[29;1H[?12l[?25h[?12;25h[38;40H[?25l[30m[48;5;250m9[39;49m[30;1H[?12l[?25h[?12;25h[38;39H[?25l[30m[48;5;250m20[39;49m[31;1H[?12l[?25h[?12;25h[38;40H[?25l[30m[48;5;250m1[39;49m[32;1H[?12l[?25h[?12;25h[38;40H[?25l[30m[48;5;250m2[39;49m[33;1H[?12l[?25h[?12;25h[38;40H[?25l[30m[48;5;250m3[39;49m[34;1H[?12l[?25h[?12;25h[38;40H[?25l[30m[48;5;250m4[39;49m[35;1H[?12l[?25h[?12;25h[38;40H[?25l[30m[48;5;250m5[39;49m[36;1H[?12l[?25h[?12;25h[38;40H[?25l[30m[48;5;250m6[39;49m[A[?12l[?25h[?12;25h[1;37r[2;1H[18M[1;39r[20;1H[?25l 20b0 70efffff 30000000 000e1046 0e184a0f  p...0......F..J.[K
 20c0 0b770880 003f1a3b 2a332422 00000000  .w...?.;*3$"....[K
 20d0 14000000 44000000 78efffff 08000000  ....D...x.......[K
 20e0 00000000 00000000 1c000000 5c000000  ............\...[K
 20f0 55f0ffff 56000000 00410e10 8602430d  U...V....A....C.[K
 2100 0602510c 07080000 1c000000 7c000000  ..Q.........|...[K
 2110 8cf0ffff 11000000 00410e10 4386020d  .........A..C...[K
 2120 064c0c07 08000000 44000000 9c000000  .L......D.......[K
 2130 80f0ffff 5d000000 00420e10 8f02450e  ....]....B....E.[K
 2140 188e0345 0e208d04 450e288c 05480e30  ...E. ..E.(..H.0[K
 2150 8606480e 38830747 0e406a0e 38410e30  ..H.8..G.@j.8A.0[K
 2160 410e2842 0e20420e 18420e10 420e0800  A.(B. B..B..B...[K
 2170 10000000 e4000000 98f0ffff 01000000  ................[K
 2180 00000000 00000000                    ........[K
Contents of section .init_array:[K
 3de8 40110000 00000000                    @.......[K
Contents of section .fini_array:[K
 3df0 00110000 00000000                    ........[K[38;34H[30m[48;5;250m6% L327[39;49m[20;1H[?12l[?25h[?12;25h[38;40H[?25l[30m[48;5;250m8[39;49m[21;1H[?12l[?25h[?12;25h[38;40H[?25l[30m[48;5;250m9[39;49m[22;1H[?12l[?25h[?12;25h[38;39H[?25l[30m[48;5;250m30[39;49m[23;1H[?12l[?25h[?12;25h[38;40H[?25l[30m[48;5;250m1[39;49m[24;1H[?12l[?25h[?12;25h[38;40H[?25l[30m[48;5;250m2[39;49m[25;1H[?12l[?25h[?12;25h[38;40H[?25l[30m[48;5;250m3[39;49m[26;1H[?12l[?25h[?12;25h[38;40H[?25l[30m[48;5;250m4[39;49m[27;1H[?12l[?25h[?12;25h[38;40H[?25l[30m[48;5;250m5[39;49m[28;1H[?12l[?25h[?12;25h[38;40H[?25l[30m[48;5;250m6[39;49m[29;1H[?12l[?25h[?12;25h[38;40H[?25l[30m[48;5;250m7[39;49m[30;1H[?12l[?25h[?12;25h[38;40H[?25l[30m[48;5;250m8[39;49m[31;1H[?12l[?25h[?12;25h[38;40H[?25l[30m[48;5;250m9[39;49m[32;1H[?12l[?25h[?12;25h[38;39H[?25l[30m[48;5;250m40[39;49m[33;1H[?12l[?25h[?12;25h[38;40H[?25l[30m[48;5;250m1[39;49m[34;1H[?12l[?25h[?12;25h[38;40H[?25l[30m[48;5;250m2[39;49m[35;1H[?12l[?25h[?12;25h[38;40H[?25l[30m[48;5;250m3[39;49m[36;1H[?12l[?25h[?12;25h[38;40H[?25l[30m[48;5;250m4[39;49m[A[?12l[?25h[?12;25h[1;37r[2;1H[18M[1;39r[20;1H[?25lContents of section .dynamic:[K
 3df8 01000000 00000000 01000000 00000000  ................[K
 3e08 0c000000 00000000 00100000 00000000  ................[K
 3e18 0d000000 00000000 14120000 00000000  ................[K
 3e28 19000000 00000000 e83d0000 00000000  .........=......[K
 3e38 1b000000 00000000 08000000 00000000  ................[K
 3e48 1a000000 00000000 f03d0000 00000000  .........=......[K
 3e58 1c000000 00000000 08000000 00000000  ................[K
 3e68 f5feff6f 00000000 08030000 00000000  ...o............[K
 3e78 05000000 00000000 f0030000 00000000  ................[K
 3e88 06000000 00000000 30030000 00000000  ........0.......[K
 3e98 0a000000 00000000 9d000000 00000000  ................[K
 3ea8 0b000000 00000000 18000000 00000000  ................[K
 3eb8 15000000 00000000 00000000 00000000  ................[K
 3ec8 03000000 00000000 00400000 00000000  .........@......[K
 3ed8 02000000 00000000 30000000 00000000  ........0.......[K
 3ee8 14000000 00000000 07000000 00000000  ................[K
 3ef8 17000000 00000000 90050000 00000000  ................[K[38;34H[30m[48;5;250m8% L345[39;49m[20;1H[?12l[?25h[?12;25h[38;40H[?25l[30m[48;5;250m6[39;49m[21;1H[?12l[?25h[?12;25h[38;40H[?25l[30m[48;5;250m7[39;49m[22;1H[?12l[?25h[?12;25h[38;40H[?25l[30m[48;5;250m8[39;49m[23;1H[?12l[?25h[?12;25h[38;40H[?25l[30m[48;5;250m9[39;49m[24;1H[?12l[?25h[?12;25h[38;39H[?25l[30m[48;5;250m50[39;49m[25;1H[?12l[?25h[?12;25h[38;40H[?25l[30m[48;5;250m1[39;49m[26;1H[?12l[?25h[?12;25h[38;40H[?25l[30m[48;5;250m2[39;49m[27;1H[?12l[?25h[?12;25h[38;40H[?25l[30m[48;5;250m3[39;49m[28;1H[?12l[?25h[?12;25h[38;40H[?25l[30m[48;5;250m4[39;49m[29;1H[?12l[?25h[?12;25h[38;40H[?25l[30m[48;5;250m5[39;49m[30;1H[?12l[?25h[?12;25h[38;40H[?25l[30m[48;5;250m6[39;49m[31;1H[?12l[?25h[?12;25h[38;40H[?25l[30m[48;5;250m7[39;49m[32;1H[?12l[?25h[?12;25h[38;40H[?25l[30m[48;5;250m8[39;49m[33;1H[?12l[?25h[?12;25h[38;40H[?25l[30m[48;5;250m9[39;49m[34;1H[?12l[?25h[?12;25h[38;39H[?25l[30m[48;5;250m60[39;49m[35;1H[?12l[?25h[?12;25h[38;40H[?25l[30m[48;5;250m1[39;49m[36;1H[?12l[?25h[?12;25h[38;40H[?25l[30m[48;5;250m2[39;49m[A[?12l[?25h[?12;25h[1;37r[2;1H[18M[1;39r[20;1H[?25l 3f08 07000000 00000000 d0040000 00000000  ................[K
 3f18 08000000 00000000 c0000000 00000000  ................[K
 3f28 09000000 00000000 18000000 00000000  ................[K
 3f38 fbffff6f 00000000 00000008 00000000  ...o............[K
 3f48 feffff6f 00000000 a0040000 00000000  ...o............[K
 3f58 ffffff6f 00000000 01000000 00000000  ...o............[K
 3f68 f0ffff6f 00000000 8e040000 00000000  ...o............[K
 3f78 f9ffff6f 00000000 03000000 00000000  ...o............[K
 3f88 00000000 00000000 00000000 00000000  ................[K
 3f98 00000000 00000000 00000000 00000000  ................[K
 3fa8 00000000 00000000 00000000 00000000  ................[K
 3fb8 00000000 00000000 00000000 00000000  ................[K
 3fc8 00000000 00000000 00000000 00000000  ................[K
Contents of section .got:[K
 3fd8 00000000 00000000 00000000 00000000  ................[K
 3fe8 00000000 00000000 00000000 00000000  ................[K
 3ff8 00000000 00000000                    ........[K
Contents of section .got.plt:[K
	[30m[48;5;250m50% L363[39;49m[20;1H[?12l[?25h[?12;25h[38;40H[?25l[30m[48;5;250m4[39;49m[21;1H[?12l[?25h[?12;25h[38;40H[?25l[30m[48;5;250m5[39;49m[22;1H[?12l[?25h[?12;25h[38;40H[?25l[30m[48;5;250m6[39;49m[23;1H[?12l[?25h[?12;25h[38;40H[?25l[30m[48;5;250m7[39;49m[24;1H[?12l[?25h[?12;25h[38;40H[?25l[30m[48;5;250m8[39;49m[25;1H[?12l[?25h[?12;25h[38;40H[?25l[30m[48;5;250m9[39;49m[26;1H[?12l[?25h[?12;25h[38;39H[?25l[30m[48;5;250m70[39;49m[27;1H[?12l[?25h[?12;25h[38;40H[?25l[30m[48;5;250m1[39;49m[28;1H[?12l[?25h[?12;25h[38;40H[?25l[30m[48;5;250m2[39;49m[29;1H[?12l[?25h[?12;25h[38;40H[?25l[30m[48;5;250m3[39;49m[30;1H[?12l[?25h[?12;25h[38;40H[?25l[30m[48;5;250m4[39;49m[31;1H[?12l[?25h[?12;25h[38;40H[?25l[30m[48;5;250m5[39;49m[32;1H[?12l[?25h[?12;25h[38;40H[?25l[30m[48;5;250m6[39;49m[33;1H[?12l[?25h[?12;25h[38;40H[?25l[30m[48;5;250m7[39;49m[34;1H[?12l[?25h[?12;25h[38;40H[?25l[30m[48;5;250m8[39;49m[35;1H[?12l[?25h[?12;25h[38;40H[?25l[30m[48;5;250m9[39;49m[36;1H[?12l[?25h[?12;25h[38;39H[?25l[30m[48;5;250m80[39;49m[A[?12l[?25h[?12;25h[1;37r[2;1H[18M[1;39r[20;1H[?25l 4000 f83d0000 00000000 00000000 00000000  .=..............[K
 4010 00000000 00000000 36100000 00000000  ........6.......[K
 4020 46100000 00000000                    F.......[K
Contents of section .data:[K
 4028 00000000 00000000 30400000 00000000  ........0@......[K
Contents of section .comment:[K
 0000 4743433a 20284465 6269616e 20382e33  GCC: (Debian 8.3[K
 0010 2e302d36 2920382e 332e3000 4743433a  .0-6) 8.3.0.GCC:[K
 0020 20285562 756e7475 2f4c696e 61726f20   (Ubuntu/Linaro[K
 0030 342e352e 322d3875 62756e74 75342920  4.5.2-8ubuntu4)[K
 0040 342e352e 3200                        4.5.2.[K
Contents of section .debug_aranges:[K
 0000 2c000000 02000000 00000800 00000000  ,...............[K
 0010 45110000 00000000 56000000 00000000  E.......V.......[K
 0020 00000000 00000000 00000000 00000000  ................[K
 0030 2c000000 0200ea02 00000800 00000000  ,...............[K
 0040 9c110000 00000000 11000000 00000000  ................[K
 0050 00000000 00000000 00000000 00000000  ................[K[38;34H[30m[48;5;250m3% L381[39;49m[20;1H[?12l[?25h[?12;25h[38;40H[?25l[30m[48;5;250m2[39;49m[21;1H[?12l[?25h[?12;25h[38;40H[?25l[30m[48;5;250m3[39;49m[22;1H[?12l[?25h[?12;25h[38;40H[?25l[30m[48;5;250m4[39;49m[23;1H[?12l[?25h[?12;25h[38;40H[?25l[30m[48;5;250m5[39;49m[24;1H[?12l[?25h[?12;25h[38;40H[?25l[30m[48;5;250m6[39;49m[25;1H[?12l[?25h[?12;25h[38;40H[?25l[30m[48;5;250m7[39;49m[26;1H[?12l[?25h[?12;25h[38;40H[?25l[30m[48;5;250m8[39;49m[27;1H[?12l[?25h[?12;25h[38;40H[?25l[30m[48;5;250m9[39;49m[28;1H[?12l[?25h[?12;25h[38;39H[?25l[30m[48;5;250m90[39;49m[29;1H[?12l[?25h[?12;25h[38;40H[?25l[30m[48;5;250m1[39;49m[30;1H[?12l[?25h[?12;25h[38;40H[?25l[30m[48;5;250m2[39;49m[31;1H[?12l[?25h[?12;25h[38;40H[?25l[30m[48;5;250m3[39;49m[32;1H[?12l[?25h[?12;25h[38;40H[?25l[30m[48;5;250m4[39;49m[33;1H[?12l[?25h[?12;25h[38;40H[?25l[30m[48;5;250m5[39;49m[34;1H[?12l[?25h[?12;25h[38;40H[?25l[30m[48;5;250m6[39;49m[35;1H[?12l[?25h[?12;25h[38;40H[?25l[30m[48;5;250m7[39;49m[36;1H[?12l[?25h[?12;25h[38;40H[?25l[30m[48;5;250m8[39;49m[A[?12l[?25h[?12;25h[1;37r[2;1H[18M[1;39r[20;1H[?25lContents of section .debug_pubnames:[K
 0000 1a000000 0200ea02 00006700 00002d00  ..........g...-.[K
 0010 00006d79 73746572 79000000 0000      ..mystery.....[K
Contents of section .debug_info:[K
 0000 e6020000 04000000 00000801 a5000000  ................[K
 0010 0c0c0000 00560100 00451100 00000000  .....V...E......[K
 0020 00560000 00000000 00000000 00022e00  .V..............[K
 0030 000002d8 17390000 00030807 9d010000  .....9..........[K
 0040 030407a2 01000004 08030108 dc000000  ................[K
 0050 03020730 01000003 0106de00 00000302  ...0............[K
 0060 05240000 00050405 696e7400 03080587  .$......int.....[K
 0070 00000002 c7010000 0396196c 00000002  ...........l....[K
 0080 bd010000 03971b6c 00000006 08910000  .......l........[K
 0090 00030106 e5000000 079c0000 00d80431  ...............1[K
 00a0 081f0200 00084300 00000433 07650000  ......C....3.e..[K
 00b0 00000823 01000004 36098b00 00000808  ...#....6.......[K
 00c0 60000000 0437098b 00000010 08080200  `....7..........[K
 00d0 00043809 8b000000 18080b01 00000439  ..8............9[K[38;34H[30m[48;5;250m5% L399[39;49m[20;1H[?12l[?25h[?12;25h[38;38H[?25l[30m[48;5;250m400[39;49m[21;1H[?12l[?25h[?12;25h[38;40H[?25l[30m[48;5;250m1[39;49m[22;1H[?12l[?25h[?12;25h[38;40H[?25l[30m[48;5;250m2[39;49m[23;1H[?12l[?25h[?12;25h[38;40H[?25l[30m[48;5;250m3[39;49m[24;1H[?12l[?25h[?12;25h[38;40H[?25l[30m[48;5;250m4[39;49m[25;1H[?12l[?25h[?12;25h[38;40H[?25l[30m[48;5;250m5[39;49m[26;1H[?12l[?25h[?12;25h[38;40H[?25l[30m[48;5;250m6[39;49m[27;1H[?12l[?25h[?12;25h[38;40H[?25l[30m[48;5;250m7[39;49m[28;1H[?12l[?25h[?12;25h[38;40H[?25l[30m[48;5;250m8[39;49m[29;1H[?12l[?25h[?12;25h[38;40H[?25l[30m[48;5;250m9[39;49m[30;1H[?12l[?25h[?12;25h[38;39H[?25l[30m[48;5;250m10[39;49m[31;1H[?12l[?25h[?12;25h[38;40H[?25l[30m[48;5;250m1[39;49m[32;1H[?12l[?25h[?12;25h[38;40H[?25l[30m[48;5;250m2[39;49m[33;1H[?12l[?25h[?12;25h[38;40H[?25l[30m[48;5;250m3[39;49m[34;1H[?12l[?25h[?12;25h[38;40H[?25l[30m[48;5;250m4[39;49m[35;1H[?12l[?25h[?12;25h[38;40H[?25l[30m[48;5;250m5[39;49m[36;1H[?12l[?25h[?12;25h[38;40H[?25l[30m[48;5;250m6[39;49m[A[?12l[?25h[?12;25h[1;37r[2;1H[18M[1;39r[20;1H[?25l 00e0 098b0000 00200835 00000004 3a098b00  ..... .5....:...[K
 00f0 00002808 af010000 043b098b 00000030  ..(......;.....0[K
 0100 084a0000 00043c09 8b000000 38080000  .J....<.....8...[K
 0110 0000043d 098b0000 00400825 02000004  ...=.....@.%....[K
 0120 40098b00 00004808 e4010000 0441098b  @.....H......A..[K
 0130 00000050 08170000 00044209 8b000000  ...P......B.....[K
 0140 58085700 00000444 16380200 006008cf  X.W....D.8...`..[K
 0150 01000004 46143e02 00006808 33020000  ....F.>...h.3...[K
 0160 04480765 00000070 08fa0100 00044907  .H.e...p......I.[K
 0170 65000000 7408ff00 0000044a 0b730000  e...t......J.s..[K
 0180 00780890 00000004 4d125000 00008008  .x......M.P.....[K
 0190 16020000 044e0f57 00000082 08f50000  .....N.W........[K
 01a0 00044f08 44020000 83088100 00000451  ..O.D..........Q[K
 01b0 0f540200 00880803 01000004 590d7f00  .T..........Y...[K
 01c0 00009008 94010000 045b175f 02000098  .........[._....[K
 01d0 08d90100 00045c19 6a020000 a0084801  ......\.j.....H.[K
 01e0 0000045d 143e0200 00a8086d 00000004  ...].>.....m....[K
 01f0 5e094700 0000b008 8a010000 045f0a2d  ^.G.........._.-[K[38;34H[30m[48;5;250m8% L417[39;49m[20;1H[?12l[?25h[?12;25h[38;40H[?25l[30m[48;5;250m8[39;49m[21;1H[?12l[?25h[?12;25h[38;40H[?25l[30m[48;5;250m9[39;49m[22;1H[?12l[?25h[?12;25h[38;39H[?25l[30m[48;5;250m20[39;49m[23;1H[?12l[?25h[?12;25h[38;40H[?25l[30m[48;5;250m1[39;49m[24;1H[?12l[?25h[?12;25h[38;40H[?25l[30m[48;5;250m2[39;49m[25;1H[?12l[?25h[?12;25h[38;40H[?25l[30m[48;5;250m3[39;49m[26;1H[?12l[?25h[?12;25h[38;40H[?25l[30m[48;5;250m4[39;49m[27;1H[?12l[?25h[?12;25h[38;40H[?25l[30m[48;5;250m5[39;49m[28;1H[?12l[?25h[?12;25h[38;40H[?25l[30m[48;5;250m6[39;49m[29;1H[?12l[?25h[?12;25h[38;40H[?25l[30m[48;5;250m7[39;49m[30;1H[?12l[?25h[?12;25h[38;40H[?25l[30m[48;5;250m8[39;49m[31;1H[?12l[?25h[?12;25h[38;40H[?25l[30m[48;5;250m9[39;49m[32;1H[?12l[?25h[?12;25h[38;39H[?25l[30m[48;5;250m30[39;49m[33;1H[?12l[?25h[?12;25h[38;40H[?25l[30m[48;5;250m1[39;49m[34;1H[?12l[?25h[?12;25h[38;40H[?25l[30m[48;5;250m2[39;49m[35;1H[?12l[?25h[?12;25h[38;40H[?25l[30m[48;5;250m3[39;49m[36;1H[?12l[?25h[?12;25h[38;40H[?25l[30m[48;5;250m4[39;49m[A[?12l[?25h[?12;25h[1;37r[2;1H[18M[1;39r[20;1H[?25l 0200 000000b8 08020200 00046007 65000000  ..........`.e...[K
 0210 c0081a01 00000462 08700200 00c40002  .......b.p......[K
 0220 a0000000 05071998 00000009 42020000  ............B...[K
 0230 042b0e0a ea000000 06083302 00000608  .+........3.....[K
 0240 98000000 0b910000 00540200 000c3900  .........T....9.[K
 0250 00000000 06082b02 00000a91 01000006  ......+.........[K
 0260 085a0200 000ad601 00000608 65020000  .Z..........e...[K
 0270 0b910000 00800200 000c3900 00001300  ..........9.....[K
 0280 0df40100 0006890e 8c020000 06081f02  ................[K
 0290 00000d3b 02000006 8a0e8c02 00000d7a  ...;...........z[K
 02a0 00000006 8b0e8c02 00000e43 01000001  ...........C....[K
 02b0 05056500 00004511 00000000 00005600  ..e...E.......V.[K
 02c0 00000000 0000019c 0f000000 00106900  ..............i.[K
 02d0 01071240 00000002 9168106d 00010912  ...@.....h.m....[K
 02e0 40000000 02916c00 00006300 00000200  @.....l...c.....[K
 02f0 d8000000 08015f02 00000155 0200006b  ......_....U...k[K
 0300 0200009c 11000000 000000ad 11000000  ................[K
 0310 00000013 01000002 014d0200 00010401  .........M......[K
				[30m[48;5;250m60% L435[39;49m[20;1H[?12l[?25h[?12;25h[38;40H[?25l[30m[48;5;250m6[39;49m[21;1H[?12l[?25h[?12;25h[38;40H[?25l[30m[48;5;250m7[39;49m[22;1H[?12l[?25h[?12;25h[38;40H[?25l[30m[48;5;250m8[39;49m[23;1H[?12l[?25h[?12;25h[38;40H[?25l[30m[48;5;250m9[39;49m[24;1H[?12l[?25h[?12;25h[38;39H[?25l[30m[48;5;250m40[39;49m[25;1H[?12l[?25h[?12;25h[38;40H[?25l[30m[48;5;250m1[39;49m[26;1H[?12l[?25h[?12;25h[38;40H[?25l[30m[48;5;250m2[39;49m[27;1H[?12l[?25h[?12;25h[38;40H[?25l[30m[48;5;250m3[39;49m[28;1H[?12l[?25h[?12;25h[38;40H[?25l[30m[48;5;250m4[39;49m[29;1H[?12l[?25h[?12;25h[38;40H[?25l[30m[48;5;250m5[39;49m[30;1H[?12l[?25h[?12;25h[38;40H[?25l[30m[48;5;250m6[39;49m[31;1H[?12l[?25h[?12;25h[38;40H[?25l[30m[48;5;250m7[39;49m[32;1H[?12l[?25h[?12;25h[38;40H[?25l[30m[48;5;250m8[39;49m[33;1H[?12l[?25h[?12;25h[38;40H[?25l[30m[48;5;250m9[39;49m[34;1H[?12l[?25h[?12;25h[38;39H[?25l[30m[48;5;250m50[39;49m[35;1H[?12l[?25h[?12;25h[38;40H[?25l[30m[48;5;250m1[39;49m[36;1H[?12l[?25h[?12;25h[38;40H[?25l[30m[48;5;250m2[39;49m[A[?12l[?25h[?12;25h[1;37r[2;1H[18M[1;39r[20;1H[?25l 0320 5f000000 9c110000 00000000 ad110000  _...............[K
 0330 00000000 00000000 5f000000 03760001  ........_....v..[K
 0340 045f0000 0002916c 00040407 a2010000  ._.....l........[K
 0350 00                                   .[K
Contents of section .debug_abbrev:[K
 0000 01110125 0e130b03 0e1b0e11 01120710  ...%............[K
 0010 17000002 1600030e 3a0b3b0b 390b4913  ........:.;.9.I.[K
 0020 00000324 000b0b3e 0b030e00 00040f00  ...$...>........[K
 0030 0b0b0000 0524000b 0b3e0b03 08000006  .....$...>......[K
 0040 0f000b0b 49130000 07130103 0e0b0b3a  ....I..........:[K
 0050 0b3b0b39 0b011300 00080d00 030e3a0b  .;.9..........:.[K
 0060 3b0b390b 4913380b 00000916 00030e3a  ;.9.I.8........:[K
 0070 0b3b0b39 0b00000a 1300030e 3c190000  .;.9........<...[K
 0080 0b010149 13011300 000c2100 49132f0b  ...I......!.I./.[K
 0090 00000d34 00030e3a 0b3b0b39 0b49133f  ...4...:.;.9.I.?[K
 00a0 193c1900 000e2e01 3f19030e 3a0b3b0b  .<......?...:.;.[K
 00b0 390b4913 11011207 40189642 1900000f  9.I.....@..B....[K
 00c0 0b015517 00001034 0003083a 0b3b0b39  ..U....4...:.;.9[K[38;34H[30m[48;5;250m3% L453[39;49m[20;1H[?12l[?25h[?12;25h[38;40H[?25l[30m[48;5;250m4[39;49m[21;1H[?12l[?25h[?12;25h[38;40H[?25l[30m[48;5;250m5[39;49m[22;1H[?12l[?25h[?12;25h[38;40H[?25l[30m[48;5;250m6[39;49m[23;1H[?12l[?25h[?12;25h[38;40H[?25l[30m[48;5;250m7[39;49m[24;1H[?12l[?25h[?12;25h[38;40H[?25l[30m[48;5;250m8[39;49m[25;1H[?12l[?25h[?12;25h[38;40H[?25l[30m[48;5;250m9[39;49m[26;1H[?12l[?25h[?12;25h[38;39H[?25l[30m[48;5;250m60[39;49m[27;1H[?12l[?25h[?12;25h[38;40H[?25l[30m[48;5;250m1[39;49m[28;1H[?12l[?25h[?12;25h[38;40H[?25l[30m[48;5;250m2[39;49m[29;1H[?12l[?25h[?12;25h[38;40H[?25l[30m[48;5;250m3[39;49m[30;1H[?12l[?25h[?12;25h[38;40H[?25l[30m[48;5;250m4[39;49m[31;1H[?12l[?25h[?12;25h[38;40H[?25l[30m[48;5;250m5[39;49m[32;1H[?12l[?25h[?12;25h[38;40H[?25l[30m[48;5;250m6[39;49m[33;1H[?12l[?25h[?12;25h[38;40H[?25l[30m[48;5;250m7[39;49m[34;1H[?12l[?25h[?12;25h[38;40H[?25l[30m[48;5;250m8[39;49m[35;1H[?12l[?25h[?12;25h[38;40H[?25l[30m[48;5;250m9[39;49m[36;1H[?12l[?25h[?12;25h[38;39H[?25l[30m[48;5;250m70[39;49m[A[?12l[?25h[?12;25h[1;37r[2;1H[18M[1;39r[20;1H[?25l 00d0 0b491302 18000000 01110125 0e130b03  .I.........%....[K
 00e0 0e1b0e11 01120110 06000002 2e013f0c  ..............?.[K
 00f0 030e3a0b 3b0b270c 49131101 12014006  ..:.;.'.I.....@.[K
 0100 01130000 03050003 083a0b3b 0b491302  .........:.;.I..[K
 0110 0a000004 24000b0b 3e0b030e 000000    ....$...>......[K
Contents of section .debug_line:[K
 0000 0f010000 0200df00 00000101 fb0e0d00  ................[K
 0010 01010101 00000001 0000012f 7573722f  .........../usr/[K
 0020 6c69622f 6763632f 7838365f 36342d6c  lib/gcc/x86_64-l[K
 0030 696e7578 2d676e75 2f382f69 6e636c75  inux-gnu/8/inclu[K
 0040 6465002f 7573722f 696e636c 7564652f  de./usr/include/[K
 0050 7838365f 36342d6c 696e7578 2d676e75  x86_64-linux-gnu[K
 0060 2f626974 73002f75 73722f69 6e636c75  /bits./usr/inclu[K
 0070 64652f78 38365f36 342d6c69 6e75782d  de/x86_64-linux-[K
 0080 676e752f 62697473 2f747970 6573002f  gnu/bits/types./[K
 0090 7573722f 696e636c 75646500 00696465  usr/include..ide[K
 00a0 6e746966 792e6300 00000073 74646465  ntify.c....stdde[K
 00b0 662e6800 01000074 79706573 2e680002  f.h....types.h..[K[38;34H[30m[48;5;250m5% L471[39;49m[20;1H[?12l[?25h[?12;25h[38;40H[?25l[30m[48;5;250m2[39;49m[21;1H[?12l[?25h[?12;25h[38;40H[?25l[30m[48;5;250m3[39;49m[22;1H[?12l[?25h[?12;25h[38;40H[?25l[30m[48;5;250m4[39;49m[23;1H[?12l[?25h[?12;25h[38;40H[?25l[30m[48;5;250m5[39;49m[24;1H[?12l[?25h[?12;25h[38;40H[?25l[30m[48;5;250m6[39;49m[25;1H[?12l[?25h[?12;25h[38;40H[?25l[30m[48;5;250m9[39;49m[28;1H[?12l[?25h[?12;25h[38;39H[?25l[30m[48;5;250m80[39;49m[29;1H[?12l[?25h[?12;25h[38;40H[?25l[30m[48;5;250m1[39;49m[30;1H[?12l[?25h[?12;25h[38;40H[?25l[30m[48;5;250m2[39;49m[31;1H[?12l[?25h[?12;25h[38;40H[?25l[30m[48;5;250m3[39;49m[32;1H[?12l[?25h[?12;25h[38;40H[?25l[30m[48;5;250m4[39;49m[33;1H[?12l[?25h[?12;25h[38;40H[?25l[30m[48;5;250m5[39;49m[34;1H[?12l[?25h[?12;25h[38;40H[?25l[30m[48;5;250m6[39;49m[35;1H[?12l[?25h[?12;25h[38;40H[?25l[30m[48;5;250m7[39;49m[36;1H[?12l[?25h[?12;25h[38;40H[?25l[30m[48;5;250m8[39;49m[A[?12l[?25h[?12;25h[1;37r[2;1H[18M[1;39r[20;1H[?25l 00c0 00007374 72756374 5f46494c 452e6800  ..struct_FILE.h.[K
 00d0 03000046 494c452e 68000300 00737464  ...FILE.h....std[K
 00e0 696f2e68 00040000 00050c00 09024511  io.h..........E.[K
 00f0 00000000 00001605 09850508 0874050a  .............t..[K
 0100 5c051671 0505c905 0d087e05 01350202  \..q......~..5..[K
 0110 00010139 00000002 00200000 000101fb  ...9..... ......[K
 0120 0e0d0001 01010100 00000100 0001006d  ...............m[K
 0130 79737465 72792e63 00000000 00000902  ystery.c........[K
 0140 9c110000 00000000 15758302 02000101  .........u......[K
Contents of section .debug_str:[K
 0000 5f494f5f 6275665f 656e6400 6964656e  _IO_buf_end.iden[K
 0010 74696679 2e63005f 494f5f73 6176655f  tify.c._IO_save_[K
 0020 656e6400 73686f72 7420696e 74007369  end.short int.si[K
 0030 7a655f74 005f494f 5f777269 74655f70  ze_t._IO_write_p[K
 0040 7472005f 666c6167 73005f49 4f5f6275  tr._flags._IO_bu[K
 0050 665f6261 7365005f 6d61726b 65727300  f_base._markers.[K
 0060 5f494f5f 72656164 5f656e64 005f6672  _IO_read_end._fr[K
 0070 65657265 735f6275 66007374 64657272  eeres_buf.stderr[K[38;34H[30m[48;5;250m8% L489[39;49m[20;1H[?12l[?25h[?12;25h[38;39H[?25l[30m[48;5;250m90[39;49m[21;1H[?12l[?25h[?12;25h[38;40H[?25l[30m[48;5;250m1[39;49m[22;1H[?12l[?25h[?12;25h[38;40H[?25l[30m[48;5;250m2[39;49m[23;1H[?12l[?25h[?12;25h[38;40H[?25l[30m[48;5;250m3[39;49m[24;1H[?12l[?25h[?12;25h[38;40H[?25l[30m[48;5;250m4[39;49m[25;1H[?12l[?25h[?12;25h[38;40H[?25l[30m[48;5;250m5[39;49m[26;1H[?12l[?25h[?12;25h[38;40H[?25l[30m[48;5;250m6[39;49m[27;1H[?12l[?25h[?12;25h[38;40H[?25l[30m[48;5;250m7[39;49m[28;1H[?12l[?25h[?12;25h[38;40H[?25l[30m[48;5;250m8[39;49m[29;1H[?12l[?25h[?12;25h[38;40H[?25l[30m[48;5;250m9[39;49m[30;1H[?12l[?25h[?12;25h[38;38H[?25l[30m[48;5;250m500[39;49m[31;1H[?12l[?25h[?12;25h[38;40H[?25l[30m[48;5;250m1[39;49m[32;1H[?12l[?25h[?12;25h[38;40H[?25l[30m[48;5;250m2[39;49m[33;1H[?12l[?25h[?12;25h[38;40H[?25l[30m[48;5;250m3[39;49m[34;1H[?12l[?25h[?12;25h[38;40H[?25l[30m[48;5;250m4[39;49m[35;1H[?12l[?25h[?12;25h[38;40H[?25l[30m[48;5;250m5[39;49m[36;1H[?12l[?25h[?12;25h[38;40H[?25l[30m[48;5;250m6[39;49m[A[?12l[?25h[?12;25h[1;37r[2;1H[18M[1;39r[20;1H[?25l 0080 005f6c6f 636b006c 6f6e6720 696e7400  ._lock.long int.[K
 0090 5f637572 5f636f6c 756d6e00 5f494f5f  _cur_column._IO_[K
 00a0 46494c45 00474e55 20433131 20382e33  FILE.GNU C11 8.3[K
 00b0 2e30202d 6d74756e 653d6765 6e657269  .0 -mtune=generi[K
 00c0 63202d6d 61726368 3d783836 2d363420  c -march=x86-64[K
 00d0 2d67202d 7374643d 63313100 756e7369  -g -std=c11.unsi[K
 00e0 676e6564 20636861 72005f49 4f5f6d61  gned char._IO_ma[K
 00f0 726b6572 005f7368 6f727462 7566005f  rker._shortbuf._[K
 0100 6f6c645f 6f666673 6574005f 494f5f77  old_offset._IO_w[K
 0110 72697465 5f626173 65005f75 6e757365  rite_base._unuse[K
 0120 6432005f 494f5f72 6561645f 70747200  d2._IO_read_ptr.[K
 0130 73686f72 7420756e 7369676e 65642069  short unsigned i[K
 0140 6e74006d 61696e00 5f667265 65726573  nt.main._freeres[K
 0150 5f6c6973 74002f68 6f6d652f 6a676f72  _list./home/jgor[K
 0160 646f3339 2f693232 30612f73 75626d69  do39/i220a/submi[K
 0170 742f6c61 62352f65 78657263 69736573  t/lab5/exercises[K
 0180 2f696465 6e746966 79005f5f 70616435  /identify.__pad5[K
 0190 005f494f 5f636f64 65637674 006c6f6e  ._IO_codecvt.lon[K
				[30m[48;5;250m70% L507[39;49m[20;1H[?12l[?25h[?12;25h[38;40H[?25l[30m[48;5;250m8[39;49m[21;1H[?12l[?25h[?12;25h[38;40H[?25l[30m[48;5;250m9[39;49m[22;1H[?12l[?25h[?12;25h[38;39H[?25l[30m[48;5;250m10[39;49m[23;1H[?12l[?25h[?12;25h[38;40H[?25l[30m[48;5;250m1[39;49m[24;1H[?12l[?25h[?12;25h[38;40H[?25l[30m[48;5;250m2[39;49m[25;1H[?12l[?25h[?12;25h[38;40H[?25l[30m[48;5;250m3[39;49m[26;1H[?12l[?25h[?12;25h[38;40H[?25l[30m[48;5;250m4[39;49m[27;1H[?12l[?25h[?12;25h[38;40H[?25l[30m[48;5;250m5[39;49m[28;1H[?12l[?25h[?12;25h[38;40H[?25l[30m[48;5;250m6[39;49m[29;1H[?12l[?25h[?12;25h[38;40H[?25l[30m[48;5;250m7[39;49m[30;1H[?12l[?25h[?12;25h[38;40H[?25l[30m[48;5;250m8[39;49m[31;1H[?12l[?25h[?12;25h[38;40H[?25l[30m[48;5;250m9[39;49m[32;1H[?12l[?25h[?12;25h[39d[K[?1004l[?2004l[?1l>[?12l[?25h[?1049l[23;0;0t[39;49mjgordo39@remote07:~/i220a/submit/lab5/exercises/identify$ strip[K[K[K[K[Kobj -d identifu[Ky | ge[Kre[[Kp -A 40 main.:
bash: obj: command not found
jgordo39@remote07:~/i220a/submit/lab5/exercises/identify$ obj -d identify | grep -A40 main.:[A[C[C[C[C[C[C[C[C[C[C[C[C[C[C[C[C[C[C[C[C[C[C[C[C[C[C[C[C[C[C[C[C[C[C[C[C[C[C[C[C[C[C[C[C[C[C[C[C[C[C[C[C[C[C[C[C[C[C[C[C[C[C[C[C[C[C[C[C[C[C[C[C[C[C[C[C[C[C[C[C[C[C[Cd -d identify | grep -A[1@4[A[C[C[C[C[C[C[C[C[C[C[C[C[C[C[C[C[C[C[C[C[C[C[C[C[C[C[C[C[C[C[C[C[C[C[C[C[C[C[C[C[C[C[C[C[C[C[C[C[C[C[C[C[C[C[C[C[C[C[C[Cu -d identify | grep -[1@A[A[C[C[C[C[C[C[C[C[C[C[C[C[C[C[C[C[C[C[C[C[C[C[C[C[C[C[C[C[C[C[C[C[C[C[C[C[C[C[C[C[C[C[C[C[C[C[C[C[C[C[C[C[C[C[C[C[C[C[C[C[Cm -d identify | grep [1@-[A[C[C[C[C[C[C[C[C[C[C[C[C[C[C[C[C[C[C[C[C[C[C[C[C[C[C[C[C[C[C[C[C[C[C[C[C[C[C[C[C[C[C[C[C[C[C[C[C[C[C[C[C[C[C[C[C[C[C[C[C[C[Cp -d identify | grep[1@ [A[C[C[C[C[C[C[C[C[C[C[C[C[C[C[C[C[C[C[C[C[C[C[C[C[C[C[C[C[C[C[C[C[C[C[C[C[C[C[C[C[C[C[C[C[C[C[C[C[C[C[C[C[C[C[C[C[C[C[C[C[C[C[C

0000000000001145 <main>:
    1145:	55                   	push   %rbp
    1146:	48 89 e5             	mov    %rsp,%rbp
    1149:	48 83 ec 10          	sub    $0x10,%rsp
    114d:	48 8d 45 f8          	lea    -0x8(%rbp),%rax
    1151:	48 89 c6             	mov    %rax,%rsi
    1154:	48 8d 3d a9 0e 00 00 	lea    0xea9(%rip),%rdi        # 2004 <_IO_stdin_used+0x4>
    115b:	b8 00 00 00 00       	mov    $0x0,%eax
    1160:	e8 db fe ff ff       	callq  1040 <__isoc99_scanf@plt>
    1165:	83 f8 01             	cmp    $0x1,%eax
    1168:	74 07                	je     1171 <main+0x2c>
    116a:	b8 00 00 00 00       	mov    $0x0,%eax
    116f:	eb 28                	jmp    1199 <main+0x54>
    1171:	8b 45 f8             	mov    -0x8(%rbp),%eax
    1174:	89 c7                	mov    %eax,%edi
    1176:	e8 21 00 00 00       	callq  119c <mystery>
    117b:	89 45 fc             	mov    %eax,-0x4(%rbp)
    117e:	8b 55 fc             	mov    -0x4(%rbp),%edx
    1181:	8b 45 fc             	mov    -0x4(%rbp),%eax
    1184:	89 c6                	mov    %eax,%esi
    1186:	48 8d 3d 7a 0e 00 00 	lea    0xe7a(%rip),%rdi        # 2007 <_IO_stdin_used+0x7>
    118d:	b8 00 00 00 00       	mov    $0x0,%eax
    1192:	e8 99 fe ff ff       	callq  1030 <printf@plt>
    1197:	eb b4                	jmp    114d <main+0x8>
    1199:	c9                   	leaveq 
    119a:	c3                   	retq   
    119b:	90                   	nop

000000000000119c <mystery>:
    119c:	55                   	push   %rbp
    119d:	48 89 e5             	mov    %rsp,%rbp
    11a0:	89 7d fc             	mov    %edi,-0x4(%rbp)
    11a3:	8b 45 fc             	mov    -0x4(%rbp),%eax
    11a6:	25 ff ff 7f 00       	and    $0x7fffff,%eax
    11ab:	c9                   	leaveq 
    11ac:	c3                   	retq   
    11ad:	0f 1f 00             	nopl   (%rax)

00000000000011b0 <__libc_csu_init>:
    11b0:	41 57                	push   %r15
    11b2:	49 89 d7             	mov    %rdx,%r15
jgordo39@remote07:~/i220a/submit/lab5/exercises/identify$ objdump -d identify | grep -A40 main.:[A[C[C[C[C[C[C[C[C[C[C[C[C[C[C[C[C[C[C[C[C[C[C[C[C[C[C[C[C[C[C[C[C[C[C[C[C[C[C[C[C[C[C[C[C[C[K
[K[A[C[C[C[C[C[C[C[C[C[C[C[C[C[C[C[C[C[C[C[C[C[C[C[C[C[C[C[C[C[C[C[C[C[C[C[C[C[C[C[C[C[C[C[C[C[C[C[C[C[C[C[C[C[C[C[C[C[Cstrip identify
jgordo39@remote07:~/i220a/submit/lab5/exercises/identify$ ls -l identify
-rwxr-x--- 1 jgordo39 jgordo39 14456 Oct  7 10:50 identify
jgordo39@remote07:~/i220a/submit/lab5/exercises/identify$ ls -l identifystrip[C[C[C[C[C[C[C[C[Cobjdump -d identify | grep -A40 main.:[A[C[C[C[C[C[C[C[C[C[C[C[C[C[C[C[C[C[C[C[C[C[C[C[C[C[C[C[C[C[C[C[C[C[C[C[C[C[C[C[C[C[C[C[C[C[C[C[C -d identify | grep -A4[4P[C[C[C[C[C[C[C[C[A[C[C[C[C[C[C[C[C[C[C[C[C[C[C[C[C[C[C[C[C[C[C[C[C[C[C[C[C[C[C[C[C[C[C[C[C[C[C[C[C[C[C[C[C[C[C[C[C[C[C[C[Cdump -d identify | grep[4@ -A4[C[C[C[C[C[C[C[C[A[C[C[C[C[C[C[C[C[C[C[C[C[C[C[C[C[C[C[C[C[C[C[C[C[C[C[C[C[C[C[C[C[C[C[C[C[C[C[C[C[C[C[C[C[C[C[C[C[C -d identify | grep -A4[4P[C[C[C[C[C[C[C[C[A[C[C[C[C[C[C[C[C[C[C[C[C[C[C[C[C[C[C[C[C[C[C[C[C[C[C[C[C[C[C[C[C[C[C[C[C[C[C[C[C[C[C[C[C[C[C[C[C[C[3Pemacs identify.objdump
[K[A[C[C[C[C[C[C[C[C[C[C[C[C[C[C[C[C[C[C[C[C[C[C[C[C[C[C[C[C[C[C[C[C[C[C[C[C[C[C[C[C[C[C[C[C[C[C[C[C[C[C[C[C[C[C[C[C[C[C[C[C[C[C[C[C[C[C[C[C[C[C[C[C[C[C[C[C[C[C[C[Cobj -d identify | grep -A40 main.:[A[C[C[C[C[C[C[C[C[C[C[C[C[C[C[C[C[C[C[C[C[C[C[C[C[C[C[C[C[C[C[C[C[C[C[C[C[C[C[C[C[C[C[C[C[C[C[C[C[C[3Pemacs identify.objdump
[K[A[C[C[C[C[C[C[C[C[C[C[C[C[C[C[C[C[C[C[C[C[C[C[C[C[C[C[C[C[C[C[C[C[C[C[C[C[C[C[C[C[C[C[C[C[C[C[C[C[C[C[C[C[C[C[C[C[C[C[C[C[C[C[C[C[C[C[C[C[C[C[C[C[C[C[C[C[C[C[C[Cobjdump -d -s -x identify > identify.objdump[A[C[C[C[C[C[C[C[C[C[C[C[C[C[C[C[C[C[C[C[C[C[C[C[C[C[C[C[C[C[C[C[C[C[C[C[C[C[C[Cls[K
[K[A[C[C[C[C[C[C[C[C[C[C[C[C[C[C[C[C[C[C[C[C[C[C[C[C[C[C[C[C[C[C[C[C[C[C[C[C[C[C[C[C[C[C[C[C[C[C[C[C[C[C[C[C[C[C[C[C[C[C[C[Cemacs identify.objdumpobjdump -d identify.o > identify.objdump[C
jgordo39@remote07:~/i220a/submit/lab5/exercises/identify$ objdump -d identify.o > identify.objdump[A[C[C[C[C[C[C[C[C[C[C[C[C[C[C[C[C[C[C[C[C[C[C[C[C[C[C[C[C[C[C[C[C[C[C[C[C[C[C[C[C[C[C[C[11Pls -l identify
[K[A[C[C[C[C[C[C[C[C[C[C[C[C[C[C[C[C[C[C[C[C[C[C[C[C[C[C[C[C[C[C[C[C[C[C[C[C[C[C[C[C[C[C[C[C[C[C[C[C[C[C[C[C[C[C[C[C[C[C[C[C[C[C[C[C[C[C[C[C[C[C[C[Cstrip[C[C[C[C[C[C[C[C[Cobjdump -d identify | grep -A40 main.:[A[C[C[C[C[C[C[C[C[C[C[C[C[C[C[C[C[C[C[C[C[C[C[C[C[C[C[C[C[C[C[C[C[C[C[C[C[C[C[C[C[C[C[C[C[C[C[C[C -d identify | grep -A4[4P[C[C[C[C[C[C[C[C[A[C[C[C[C[C[C[C[C[C[C[C[C[C[C[C[C[C[C[C[C[C[C[C[C[C[C[C[C[C[C[C[C[C[C[C[C[C[C[C[C[C[C[C[C[C[C[C[C[C[3Pemacs identify.objdump
[K[A[C[C[C[C[C[C[C[C[C[C[C[C[C[C[C[C[C[C[C[C[C[C[C[C[C[C[C[C[C[C[C[C[C[C[C[C[C[C[C[C[C[C[C[C[C[C[C[C[C[C[C[C[C[C[C[C[C[C[C[C[C[C[C[C[C[C[C[C[C[C[C[C[C[C[C[C[C[C[C[Cobjdump -d -s -x identify > identify.objdump[A[C[C[C[C[C[C[C[C[C[C[C[C[C[C[C[C[C[C[C[C[C[C[C[C[C[C[C[C[C[C[C[C[C[C[C[C[C[C[C[3Pemacs identify.objdump
[K[A[C[C[C[C[C[C[C[C[C[C[C[C[C[C[C[C[C[C[C[C[C[C[C[C[C[C[C[C[C[C[C[C[C[C[C[C[C[C[C[C[C[C[C[C[C[C[C[C[C[C[C[C[C[C[C[C[C[C[C[C[C[C[C[C[C[C[C[C[C[C[C[C[C[C[C[C[C[C[C[C[C[C[C[C[C[1P identify.objdump[1P identify.objdump[1P identify.objdump[1P identify.objdump[1P identify.objdumpc identify.objdumpa identify.objdumpr identify.objdump
bash: car: command not found
jgordo39@remote07:~/i220a/submit/lab5/exercises/identify$ car identify.objdump[1P identify.objdumpt identify.objdump

identify.o:     file format elf64-x86-64


Disassembly of section .text:

0000000000000000 <main>:
   0:	55                   	push   %rbp
   1:	48 89 e5             	mov    %rsp,%rbp
   4:	48 83 ec 10          	sub    $0x10,%rsp
   8:	48 8d 45 f8          	lea    -0x8(%rbp),%rax
   c:	48 89 c6             	mov    %rax,%rsi
   f:	48 8d 3d 00 00 00 00 	lea    0x0(%rip),%rdi        # 16 <main+0x16>
  16:	b8 00 00 00 00       	mov    $0x0,%eax
  1b:	e8 00 00 00 00       	callq  20 <main+0x20>
  20:	83 f8 01             	cmp    $0x1,%eax
  23:	74 07                	je     2c <main+0x2c>
  25:	b8 00 00 00 00       	mov    $0x0,%eax
  2a:	eb 28                	jmp    54 <main+0x54>
  2c:	8b 45 f8             	mov    -0x8(%rbp),%eax
  2f:	89 c7                	mov    %eax,%edi
  31:	e8 00 00 00 00       	callq  36 <main+0x36>
  36:	89 45 fc             	mov    %eax,-0x4(%rbp)
  39:	8b 55 fc             	mov    -0x4(%rbp),%edx
  3c:	8b 45 fc             	mov    -0x4(%rbp),%eax
  3f:	89 c6                	mov    %eax,%esi
  41:	48 8d 3d 00 00 00 00 	lea    0x0(%rip),%rdi        # 48 <main+0x48>
  48:	b8 00 00 00 00       	mov    $0x0,%eax
  4d:	e8 00 00 00 00       	callq  52 <main+0x52>
  52:	eb b4                	jmp    8 <main+0x8>
  54:	c9                   	leaveq 
  55:	c3                   	retq   
jgordo39@remote07:~/i220a/submit/lab5/exercises/identify$ cat identify.objdumpr[C[C[C[C[C[C[C[C[C[C[C[C[C[C[C[C[Cobjdump -d identify.o > identify.objdump[A[C[C[C[C[C[C[C[C[C[C[C[C[C[C[C[C[C[C[C[C[C[C[C[C[C[C[C[C[C[C[C[C[C[C[C[C[C[C[C[C[C[C[C[C[C[C[C[C[C[C[C[C[C[C[C[C[C[C[C[C[C[C[C[C[C[C[C[C[C[C[C[C[C[C[C[C[C[C[C[C[C[Cs identify.o > identify.objdump[A[C[C[C[C[C[C[C[C[C[C[C[C[C[C[C[C[C[C[C[C[C[C[C[C[C[C[C[C[C[C[C[C[C[C[C[C[C[C[C[C[C[C[C[C[C[C[C[C[C[C[C[C[C

jgordo39@remote07:~/i220a/submit/lab5/exercises/identify$ objdump -ds identify.o > identify.objdump[A[C[C[C[C[C[C[C[C[C[C[C[C[C[C[C[C[C[C[C[C[C[C[C[C[C[C[C[C[C[C[C[C[C[C[C[C[C[C[C[C[C[C[5Pcat identify.objdump
[K[A[C[C[C[C[C[C[C[C[C[C[C[C[C[C[C[C[C[C[C[C[C[C[C[C[C[C[C[C[C[C[C[C[C[C[C[C[C[C[C[C[C[C[C[C[C[C[C[C[C[C[C[C[C[C[C[C[C[C[C[C[C[C[C[C[C[C[C[C[C[C[C[C[C[C[C[C[C[C

identify.o:     file format elf64-x86-64

Contents of section .text:
 0000 554889e5 4883ec10 488d45f8 4889c648  UH..H...H.E.H..H
 0010 8d3d0000 0000b800 000000e8 00000000  .=..............
 0020 83f80174 07b80000 0000eb28 8b45f889  ...t.......(.E..
 0030 c7e80000 00008945 fc8b55fc 8b45fc89  .......E..U..E..
 0040 c6488d3d 00000000 b8000000 00e80000  .H.=............
 0050 0000ebb4 c9c3                        ......          
Contents of section .rodata:
 0000 2578006d 79737465 7279203d 20256420  %x.mystery = %d 
 0010 28307825 78290a00                    (0x%x)..        
Contents of section .debug_info:
 0000 e6020000 04000000 00000801 00000000  ................
 0010 0c000000 00000000 00000000 00000000  ................
 0020 00560000 00000000 00000000 00020000  .V..............
 0030 000002d8 17390000 00030807 00000000  .....9..........
 0040 03040700 00000004 08030108 00000000  ................
 0050 03020700 00000003 01060000 00000302  ................
 0060 05000000 00050405 696e7400 03080500  ........int.....
 0070 00000002 00000000 0396196c 00000002  ...........l....
 0080 00000000 03971b6c 00000006 08910000  .......l........
 0090 00030106 00000000 07000000 00d80431  ...............1
 00a0 081f0200 00080000 00000433 07650000  ...........3.e..
 00b0 00000800 00000004 36098b00 00000808  ........6.......
 00c0 00000000 0437098b 00000010 08000000  .....7..........
 00d0 00043809 8b000000 18080000 00000439  ..8............9
 00e0 098b0000 00200800 00000004 3a098b00  ..... ......:...
 00f0 00002808 00000000 043b098b 00000030  ..(......;.....0
 0100 08000000 00043c09 8b000000 38080000  ......<.....8...
 0110 0000043d 098b0000 00400800 00000004  ...=.....@......
 0120 40098b00 00004808 00000000 0441098b  @.....H......A..
 0130 00000050 08000000 00044209 8b000000  ...P......B.....
 0140 58080000 00000444 16380200 00600800  X......D.8...`..
 0150 00000004 46143e02 00006808 00000000  ....F.>...h.....
 0160 04480765 00000070 08000000 00044907  .H.e...p......I.
 0170 65000000 74080000 0000044a 0b730000  e...t......J.s..
 0180 00780800 00000004 4d125000 00008008  .x......M.P.....
 0190 00000000 044e0f57 00000082 08000000  .....N.W........
 01a0 00044f08 44020000 83080000 00000451  ..O.D..........Q
 01b0 0f540200 00880800 00000004 590d7f00  .T..........Y...
 01c0 00009008 00000000 045b175f 02000098  .........[._....
 01d0 08000000 00045c19 6a020000 a0080000  ......\.j.......
 01e0 0000045d 143e0200 00a80800 00000004  ...].>..........
 01f0 5e094700 0000b008 00000000 045f0a2d  ^.G.........._.-
 0200 000000b8 08000000 00046007 65000000  ..........`.e...
 0210 c0080000 00000462 08700200 00c40002  .......b.p......
 0220 00000000 05071998 00000009 00000000  ................
 0230 042b0e0a 00000000 06083302 00000608  .+........3.....
 0240 98000000 0b910000 00540200 000c3900  .........T....9.
 0250 00000000 06082b02 00000a00 00000006  ......+.........
 0260 085a0200 000a0000 00000608 65020000  .Z..........e...
 0270 0b910000 00800200 000c3900 00001300  ..........9.....
 0280 0d000000 0006890e 8c020000 06081f02  ................
 0290 00000d00 00000006 8a0e8c02 00000d00  ................
 02a0 00000006 8b0e8c02 00000e00 00000001  ................
 02b0 05056500 00000000 00000000 00005600  ..e...........V.
 02c0 00000000 0000019c 0f000000 00106900  ..............i.
 02d0 01071240 00000002 9168106d 00010912  ...@.....h.m....
 02e0 40000000 02916c00 0000               @.....l...      
Contents of section .debug_abbrev:
 0000 01110125 0e130b03 0e1b0e11 01120710  ...%............
 0010 17000002 1600030e 3a0b3b0b 390b4913  ........:.;.9.I.
 0020 00000324 000b0b3e 0b030e00 00040f00  ...$...>........
 0030 0b0b0000 0524000b 0b3e0b03 08000006  .....$...>......
 0040 0f000b0b 49130000 07130103 0e0b0b3a  ....I..........:
 0050 0b3b0b39 0b011300 00080d00 030e3a0b  .;.9..........:.
 0060 3b0b390b 4913380b 00000916 00030e3a  ;.9.I.8........:
 0070 0b3b0b39 0b00000a 1300030e 3c190000  .;.9........<...
 0080 0b010149 13011300 000c2100 49132f0b  ...I......!.I./.
 0090 00000d34 00030e3a 0b3b0b39 0b49133f  ...4...:.;.9.I.?
 00a0 193c1900 000e2e01 3f19030e 3a0b3b0b  .<......?...:.;.
 00b0 390b4913 11011207 40189642 1900000f  9.I.....@..B....
 00c0 0b015517 00001034 0003083a 0b3b0b39  ..U....4...:.;.9
 00d0 0b491302 18000000                    .I......        
Contents of section .debug_aranges:
 0000 2c000000 02000000 00000800 00000000  ,...............
 0010 00000000 00000000 56000000 00000000  ........V.......
 0020 00000000 00000000 00000000 00000000  ................
Contents of section .debug_ranges:
 0000 08000000 00000000 25000000 00000000  ........%.......
 0010 2c000000 00000000 52000000 00000000  ,.......R.......
 0020 00000000 00000000 00000000 00000000  ................
Contents of section .debug_line:
 0000 0f010000 0200df00 00000101 fb0e0d00  ................
 0010 01010101 00000001 0000012f 7573722f  .........../usr/
 0020 6c69622f 6763632f 7838365f 36342d6c  lib/gcc/x86_64-l
 0030 696e7578 2d676e75 2f382f69 6e636c75  inux-gnu/8/inclu
 0040 6465002f 7573722f 696e636c 7564652f  de./usr/include/
 0050 7838365f 36342d6c 696e7578 2d676e75  x86_64-linux-gnu
 0060 2f626974 73002f75 73722f69 6e636c75  /bits./usr/inclu
 0070 64652f78 38365f36 342d6c69 6e75782d  de/x86_64-linux-
 0080 676e752f 62697473 2f747970 6573002f  gnu/bits/types./
 0090 7573722f 696e636c 75646500 00696465  usr/include..ide
 00a0 6e746966 792e6300 00000073 74646465  ntify.c....stdde
 00b0 662e6800 01000074 79706573 2e680002  f.h....types.h..
 00c0 00007374 72756374 5f46494c 452e6800  ..struct_FILE.h.
 00d0 03000046 494c452e 68000300 00737464  ...FILE.h....std
 00e0 696f2e68 00040000 00050c00 09020000  io.h............
 00f0 00000000 00001605 09850508 0874050a  .............t..
 0100 5c051671 0505c905 0d087e05 01350202  \..q......~..5..
 0110 000101                               ...             
Contents of section .debug_str:
 0000 5f494f5f 6275665f 656e6400 6964656e  _IO_buf_end.iden
 0010 74696679 2e63005f 494f5f73 6176655f  tify.c._IO_save_
 0020 656e6400 73686f72 7420696e 74007369  end.short int.si
 0030 7a655f74 005f6f66 66736574 005f494f  ze_t._offset._IO
 0040 5f777269 74655f70 7472005f 666c6167  _write_ptr._flag
 0050 73005f49 4f5f6275 665f6261 7365005f  s._IO_buf_base._
 0060 6d61726b 65727300 5f494f5f 72656164  markers._IO_read
 0070 5f656e64 005f6672 65657265 735f6275  _end._freeres_bu
 0080 66007374 64657272 005f6c6f 636b006c  f.stderr._lock.l
 0090 6f6e6720 696e7400 5f637572 5f636f6c  ong int._cur_col
 00a0 756d6e00 5f494f5f 46494c45 00474e55  umn._IO_FILE.GNU
 00b0 20433131 20382e33 2e30202d 6d74756e   C11 8.3.0 -mtun
 00c0 653d6765 6e657269 63202d6d 61726368  e=generic -march
 00d0 3d783836 2d363420 2d67202d 7374643d  =x86-64 -g -std=
 00e0 63313100 756e7369 676e6564 20636861  c11.unsigned cha
 00f0 72007369 676e6564 20636861 72005f63  r.signed char._c
 0100 6f646563 76740075 6e736967 6e656420  odecvt.unsigned 
 0110 696e7400 5f494f5f 6d61726b 6572005f  int._IO_marker._
 0120 73686f72 74627566 005f6f6c 645f6f66  shortbuf._old_of
 0130 66736574 005f494f 5f777269 74655f62  fset._IO_write_b
 0140 61736500 5f756e75 73656432 005f494f  ase._unused2._IO
 0150 5f726561 645f7074 72007368 6f727420  _read_ptr.short 
 0160 756e7369 676e6564 20696e74 00636861  unsigned int.cha
 0170 72006d61 696e005f 77696465 5f646174  r.main._wide_dat
 0180 61005f66 72656572 65735f6c 69737400  a._freeres_list.
 0190 2f686f6d 652f6a67 6f72646f 33392f69  /home/jgordo39/i
 01a0 32323061 2f737562 6d69742f 6c616235  220a/submit/lab5
 01b0 2f657865 72636973 65732f69 64656e74  /exercises/ident
 01c0 69667900 5f5f7061 6435005f 494f5f63  ify.__pad5._IO_c
 01d0 6f646563 7674006c 6f6e6720 756e7369  odecvt.long unsi
 01e0 676e6564 20696e74 005f494f 5f777269  gned int._IO_wri
 01f0 74655f65 6e64005f 5f6f6666 36345f74  te_end.__off64_t
 0200 005f5f6f 66665f74 005f6368 61696e00  .__off_t._chain.
 0210 5f494f5f 77696465 5f646174 61005f49  _IO_wide_data._I
 0220 4f5f6261 636b7570 5f626173 65007374  O_backup_base.st
 0230 64696e00 5f666c61 67733200 5f6d6f64  din._flags2._mod
 0240 65005f49 4f5f7265 61645f62 61736500  e._IO_read_base.
 0250 5f767461 626c655f 6f666673 6574005f  _vtable_offset._
 0260 494f5f73 6176655f 62617365 005f6669  IO_save_base._fi
 0270 6c656e6f 0046494c 45007374 646f7574  leno.FILE.stdout
 0280 005f494f 5f6c6f63 6b5f7400           ._IO_lock_t.    
Contents of section .comment:
 0000 00474343 3a202844 65626961 6e20382e  .GCC: (Debian 8.
 0010 332e302d 36292038 2e332e30 00        3.0-6) 8.3.0.   
Contents of section .eh_frame:
 0000 14000000 00000000 017a5200 01781001  .........zR..x..
 0010 1b0c0708 90010000 1c000000 1c000000  ................
 0020 00000000 56000000 00410e10 8602430d  ....V....A....C.
 0030 0602510c 07080000                    ..Q.....        

Disassembly of section .text:

0000000000000000 <main>:
   0:	55                   	push   %rbp
   1:	48 89 e5             	mov    %rsp,%rbp
   4:	48 83 ec 10          	sub    $0x10,%rsp
   8:	48 8d 45 f8          	lea    -0x8(%rbp),%rax
   c:	48 89 c6             	mov    %rax,%rsi
   f:	48 8d 3d 00 00 00 00 	lea    0x0(%rip),%rdi        # 16 <main+0x16>
  16:	b8 00 00 00 00       	mov    $0x0,%eax
  1b:	e8 00 00 00 00       	callq  20 <main+0x20>
  20:	83 f8 01             	cmp    $0x1,%eax
  23:	74 07                	je     2c <main+0x2c>
  25:	b8 00 00 00 00       	mov    $0x0,%eax
  2a:	eb 28                	jmp    54 <main+0x54>
  2c:	8b 45 f8             	mov    -0x8(%rbp),%eax
  2f:	89 c7                	mov    %eax,%edi
  31:	e8 00 00 00 00       	callq  36 <main+0x36>
  36:	89 45 fc             	mov    %eax,-0x4(%rbp)
  39:	8b 55 fc             	mov    -0x4(%rbp),%edx
  3c:	8b 45 fc             	mov    -0x4(%rbp),%eax
  3f:	89 c6                	mov    %eax,%esi
  41:	48 8d 3d 00 00 00 00 	lea    0x0(%rip),%rdi        # 48 <main+0x48>
  48:	b8 00 00 00 00       	mov    $0x0,%eax
  4d:	e8 00 00 00 00       	callq  52 <main+0x52>
  52:	eb b4                	jmp    8 <main+0x8>
  54:	c9                   	leaveq 
  55:	c3                   	retq   
jgordo39@remote07:~/i220a/submit/lab5/exercises/identify$ cat identify.objdumpobjdump -ds identify.o > identify.objdump[A[C[C[C[C[C[C[C[C[C[C[C[C[C[C[C[C[C[C[C[C[C[C[C[C[C[C[C[C[C[C[C[C[C[C[C[C[C[C[C[C[C[C[5Pcat identify.objdump
[K[A[C[C[C[C[C[C[C[C[C[C[C[C[C[C[C[C[C[C[C[C[C[C[C[C[C[C[C[C[C[C[C[C[C[C[C[C[C[C[C[C[C[C[C[C[C[C[C[C[C[C[C[C[C[C[C[C[C[C[C[C[C[C[C[C[C[C[C[C[C[C[C[C[C[C[C[C[C[Cobjdump -ds identify.o > identify.objdump[A[C[C[C[C[C[C[C[C[C[C[C[C[C[C[C[C[C[C[C[C[C[C[C[C[C[C[C[C[C[C[C[C[C[C[C[C[C[C[C[C[C[C[C[C[C[C[C[C[C[C[C[C[C[C[C[C[C[C[C[C[C[C[C[C[C[C[C[C[C[C[C[C[C[C[C[C[C[C[C[C[C[C s identify.o > identify.objdump[A[C[C[C[C[C[C[C[C[C[C[C[C[C[C[C[C[C[C[C[C[C[C[C[C[C[C[C[C[C[C[C[C[C[C[C[C[C[C[C[C[C[C[C[C[C[C[C[C[C[C[C[C-s identify.o > identify.objdump[A[C[C[C[C[C[C[C[C[C[C[C[C[C[C[C[C[C[C[C[C[C[C[C[C[C[C[C[C[C[C[C[C[C[C[C[C[C[C[C[C[C[C[C[C[C[C[C[C[C[C[C[C

jgordo39@remote07:~/i220a/submit/lab5/exercises/identify$ objdump -d -s identify.o > identify.objdump[A[C[C[C[C[C[C[C[C[C[C[C[C[C[C[C[C[C[C[C[C[C[C[C[C[C[C[C[C[C[C[C[C[C[C[C[C[C[C[C[C[5Pcat identify.objdump
[K[A[C[C[C[C[C[C[C[C[C[C[C[C[C[C[C[C[C[C[C[C[C[C[C[C[C[C[C[C[C[C[C[C[C[C[C[C[C[C[C[C[C[C[C[C[C[C[C[C[C[C[C[C[C[C[C[C[C[C[C[C[C[C[C[C[C[C[C[C[C[C[C[C[C[C[C[C[C[C

identify.o:     file format elf64-x86-64

Contents of section .text:
 0000 554889e5 4883ec10 488d45f8 4889c648  UH..H...H.E.H..H
 0010 8d3d0000 0000b800 000000e8 00000000  .=..............
 0020 83f80174 07b80000 0000eb28 8b45f889  ...t.......(.E..
 0030 c7e80000 00008945 fc8b55fc 8b45fc89  .......E..U..E..
 0040 c6488d3d 00000000 b8000000 00e80000  .H.=............
 0050 0000ebb4 c9c3                        ......          
Contents of section .rodata:
 0000 2578006d 79737465 7279203d 20256420  %x.mystery = %d 
 0010 28307825 78290a00                    (0x%x)..        
Contents of section .debug_info:
 0000 e6020000 04000000 00000801 00000000  ................
 0010 0c000000 00000000 00000000 00000000  ................
 0020 00560000 00000000 00000000 00020000  .V..............
 0030 000002d8 17390000 00030807 00000000  .....9..........
 0040 03040700 00000004 08030108 00000000  ................
 0050 03020700 00000003 01060000 00000302  ................
 0060 05000000 00050405 696e7400 03080500  ........int.....
 0070 00000002 00000000 0396196c 00000002  ...........l....
 0080 00000000 03971b6c 00000006 08910000  .......l........
 0090 00030106 00000000 07000000 00d80431  ...............1
 00a0 081f0200 00080000 00000433 07650000  ...........3.e..
 00b0 00000800 00000004 36098b00 00000808  ........6.......
 00c0 00000000 0437098b 00000010 08000000  .....7..........
 00d0 00043809 8b000000 18080000 00000439  ..8............9
 00e0 098b0000 00200800 00000004 3a098b00  ..... ......:...
 00f0 00002808 00000000 043b098b 00000030  ..(......;.....0
 0100 08000000 00043c09 8b000000 38080000  ......<.....8...
 0110 0000043d 098b0000 00400800 00000004  ...=.....@......
 0120 40098b00 00004808 00000000 0441098b  @.....H......A..
 0130 00000050 08000000 00044209 8b000000  ...P......B.....
 0140 58080000 00000444 16380200 00600800  X......D.8...`..
 0150 00000004 46143e02 00006808 00000000  ....F.>...h.....
 0160 04480765 00000070 08000000 00044907  .H.e...p......I.
 0170 65000000 74080000 0000044a 0b730000  e...t......J.s..
 0180 00780800 00000004 4d125000 00008008  .x......M.P.....
 0190 00000000 044e0f57 00000082 08000000  .....N.W........
 01a0 00044f08 44020000 83080000 00000451  ..O.D..........Q
 01b0 0f540200 00880800 00000004 590d7f00  .T..........Y...
 01c0 00009008 00000000 045b175f 02000098  .........[._....
 01d0 08000000 00045c19 6a020000 a0080000  ......\.j.......
 01e0 0000045d 143e0200 00a80800 00000004  ...].>..........
 01f0 5e094700 0000b008 00000000 045f0a2d  ^.G.........._.-
 0200 000000b8 08000000 00046007 65000000  ..........`.e...
 0210 c0080000 00000462 08700200 00c40002  .......b.p......
 0220 00000000 05071998 00000009 00000000  ................
 0230 042b0e0a 00000000 06083302 00000608  .+........3.....
 0240 98000000 0b910000 00540200 000c3900  .........T....9.
 0250 00000000 06082b02 00000a00 00000006  ......+.........
 0260 085a0200 000a0000 00000608 65020000  .Z..........e...
 0270 0b910000 00800200 000c3900 00001300  ..........9.....
 0280 0d000000 0006890e 8c020000 06081f02  ................
 0290 00000d00 00000006 8a0e8c02 00000d00  ................
 02a0 00000006 8b0e8c02 00000e00 00000001  ................
 02b0 05056500 00000000 00000000 00005600  ..e...........V.
 02c0 00000000 0000019c 0f000000 00106900  ..............i.
 02d0 01071240 00000002 9168106d 00010912  ...@.....h.m....
 02e0 40000000 02916c00 0000               @.....l...      
Contents of section .debug_abbrev:
 0000 01110125 0e130b03 0e1b0e11 01120710  ...%............
 0010 17000002 1600030e 3a0b3b0b 390b4913  ........:.;.9.I.
 0020 00000324 000b0b3e 0b030e00 00040f00  ...$...>........
 0030 0b0b0000 0524000b 0b3e0b03 08000006  .....$...>......
 0040 0f000b0b 49130000 07130103 0e0b0b3a  ....I..........:
 0050 0b3b0b39 0b011300 00080d00 030e3a0b  .;.9..........:.
 0060 3b0b390b 4913380b 00000916 00030e3a  ;.9.I.8........:
 0070 0b3b0b39 0b00000a 1300030e 3c190000  .;.9........<...
 0080 0b010149 13011300 000c2100 49132f0b  ...I......!.I./.
 0090 00000d34 00030e3a 0b3b0b39 0b49133f  ...4...:.;.9.I.?
 00a0 193c1900 000e2e01 3f19030e 3a0b3b0b  .<......?...:.;.
 00b0 390b4913 11011207 40189642 1900000f  9.I.....@..B....
 00c0 0b015517 00001034 0003083a 0b3b0b39  ..U....4...:.;.9
 00d0 0b491302 18000000                    .I......        
Contents of section .debug_aranges:
 0000 2c000000 02000000 00000800 00000000  ,...............
 0010 00000000 00000000 56000000 00000000  ........V.......
 0020 00000000 00000000 00000000 00000000  ................
Contents of section .debug_ranges:
 0000 08000000 00000000 25000000 00000000  ........%.......
 0010 2c000000 00000000 52000000 00000000  ,.......R.......
 0020 00000000 00000000 00000000 00000000  ................
Contents of section .debug_line:
 0000 0f010000 0200df00 00000101 fb0e0d00  ................
 0010 01010101 00000001 0000012f 7573722f  .........../usr/
 0020 6c69622f 6763632f 7838365f 36342d6c  lib/gcc/x86_64-l
 0030 696e7578 2d676e75 2f382f69 6e636c75  inux-gnu/8/inclu
 0040 6465002f 7573722f 696e636c 7564652f  de./usr/include/
 0050 7838365f 36342d6c 696e7578 2d676e75  x86_64-linux-gnu
 0060 2f626974 73002f75 73722f69 6e636c75  /bits./usr/inclu
 0070 64652f78 38365f36 342d6c69 6e75782d  de/x86_64-linux-
 0080 676e752f 62697473 2f747970 6573002f  gnu/bits/types./
 0090 7573722f 696e636c 75646500 00696465  usr/include..ide
 00a0 6e746966 792e6300 00000073 74646465  ntify.c....stdde
 00b0 662e6800 01000074 79706573 2e680002  f.h....types.h..
 00c0 00007374 72756374 5f46494c 452e6800  ..struct_FILE.h.
 00d0 03000046 494c452e 68000300 00737464  ...FILE.h....std
 00e0 696f2e68 00040000 00050c00 09020000  io.h............
 00f0 00000000 00001605 09850508 0874050a  .............t..
 0100 5c051671 0505c905 0d087e05 01350202  \..q......~..5..
 0110 000101                               ...             
Contents of section .debug_str:
 0000 5f494f5f 6275665f 656e6400 6964656e  _IO_buf_end.iden
 0010 74696679 2e63005f 494f5f73 6176655f  tify.c._IO_save_
 0020 656e6400 73686f72 7420696e 74007369  end.short int.si
 0030 7a655f74 005f6f66 66736574 005f494f  ze_t._offset._IO
 0040 5f777269 74655f70 7472005f 666c6167  _write_ptr._flag
 0050 73005f49 4f5f6275 665f6261 7365005f  s._IO_buf_base._
 0060 6d61726b 65727300 5f494f5f 72656164  markers._IO_read
 0070 5f656e64 005f6672 65657265 735f6275  _end._freeres_bu
 0080 66007374 64657272 005f6c6f 636b006c  f.stderr._lock.l
 0090 6f6e6720 696e7400 5f637572 5f636f6c  ong int._cur_col
 00a0 756d6e00 5f494f5f 46494c45 00474e55  umn._IO_FILE.GNU
 00b0 20433131 20382e33 2e30202d 6d74756e   C11 8.3.0 -mtun
 00c0 653d6765 6e657269 63202d6d 61726368  e=generic -march
 00d0 3d783836 2d363420 2d67202d 7374643d  =x86-64 -g -std=
 00e0 63313100 756e7369 676e6564 20636861  c11.unsigned cha
 00f0 72007369 676e6564 20636861 72005f63  r.signed char._c
 0100 6f646563 76740075 6e736967 6e656420  odecvt.unsigned 
 0110 696e7400 5f494f5f 6d61726b 6572005f  int._IO_marker._
 0120 73686f72 74627566 005f6f6c 645f6f66  shortbuf._old_of
 0130 66736574 005f494f 5f777269 74655f62  fset._IO_write_b
 0140 61736500 5f756e75 73656432 005f494f  ase._unused2._IO
 0150 5f726561 645f7074 72007368 6f727420  _read_ptr.short 
 0160 756e7369 676e6564 20696e74 00636861  unsigned int.cha
 0170 72006d61 696e005f 77696465 5f646174  r.main._wide_dat
 0180 61005f66 72656572 65735f6c 69737400  a._freeres_list.
 0190 2f686f6d 652f6a67 6f72646f 33392f69  /home/jgordo39/i
 01a0 32323061 2f737562 6d69742f 6c616235  220a/submit/lab5
 01b0 2f657865 72636973 65732f69 64656e74  /exercises/ident
 01c0 69667900 5f5f7061 6435005f 494f5f63  ify.__pad5._IO_c
 01d0 6f646563 7674006c 6f6e6720 756e7369  odecvt.long unsi
 01e0 676e6564 20696e74 005f494f 5f777269  gned int._IO_wri
 01f0 74655f65 6e64005f 5f6f6666 36345f74  te_end.__off64_t
 0200 005f5f6f 66665f74 005f6368 61696e00  .__off_t._chain.
 0210 5f494f5f 77696465 5f646174 61005f49  _IO_wide_data._I
 0220 4f5f6261 636b7570 5f626173 65007374  O_backup_base.st
 0230 64696e00 5f666c61 67733200 5f6d6f64  din._flags2._mod
 0240 65005f49 4f5f7265 61645f62 61736500  e._IO_read_base.
 0250 5f767461 626c655f 6f666673 6574005f  _vtable_offset._
 0260 494f5f73 6176655f 62617365 005f6669  IO_save_base._fi
 0270 6c656e6f 0046494c 45007374 646f7574  leno.FILE.stdout
 0280 005f494f 5f6c6f63 6b5f7400           ._IO_lock_t.    
Contents of section .comment:
 0000 00474343 3a202844 65626961 6e20382e  .GCC: (Debian 8.
 0010 332e302d 36292038 2e332e30 00        3.0-6) 8.3.0.   
Contents of section .eh_frame:
 0000 14000000 00000000 017a5200 01781001  .........zR..x..
 0010 1b0c0708 90010000 1c000000 1c000000  ................
 0020 00000000 56000000 00410e10 8602430d  ....V....A....C.
 0030 0602510c 07080000                    ..Q.....        

Disassembly of section .text:

0000000000000000 <main>:
   0:	55                   	push   %rbp
   1:	48 89 e5             	mov    %rsp,%rbp
   4:	48 83 ec 10          	sub    $0x10,%rsp
   8:	48 8d 45 f8          	lea    -0x8(%rbp),%rax
   c:	48 89 c6             	mov    %rax,%rsi
   f:	48 8d 3d 00 00 00 00 	lea    0x0(%rip),%rdi        # 16 <main+0x16>
  16:	b8 00 00 00 00       	mov    $0x0,%eax
  1b:	e8 00 00 00 00       	callq  20 <main+0x20>
  20:	83 f8 01             	cmp    $0x1,%eax
  23:	74 07                	je     2c <main+0x2c>
  25:	b8 00 00 00 00       	mov    $0x0,%eax
  2a:	eb 28                	jmp    54 <main+0x54>
  2c:	8b 45 f8             	mov    -0x8(%rbp),%eax
  2f:	89 c7                	mov    %eax,%edi
  31:	e8 00 00 00 00       	callq  36 <main+0x36>
  36:	89 45 fc             	mov    %eax,-0x4(%rbp)
  39:	8b 55 fc             	mov    -0x4(%rbp),%edx
  3c:	8b 45 fc             	mov    -0x4(%rbp),%eax
  3f:	89 c6                	mov    %eax,%esi
  41:	48 8d 3d 00 00 00 00 	lea    0x0(%rip),%rdi        # 48 <main+0x48>
  48:	b8 00 00 00 00       	mov    $0x0,%eax
  4d:	e8 00 00 00 00       	callq  52 <main+0x52>
  52:	eb b4                	jmp    8 <main+0x8>
  54:	c9                   	leaveq 
  55:	c3                   	retq   
jgordo39@remote07:~/i220a/submit/lab5/exercises/identify$ clear
[H[2J[3Jjgordo39@remote07:~/i220a/submit/lab5/exercises/identify$ clearat identify.objdump

identify.o:     file format elf64-x86-64

Contents of section .text:
 0000 554889e5 4883ec10 488d45f8 4889c648  UH..H...H.E.H..H
 0010 8d3d0000 0000b800 000000e8 00000000  .=..............
 0020 83f80174 07b80000 0000eb28 8b45f889  ...t.......(.E..
 0030 c7e80000 00008945 fc8b55fc 8b45fc89  .......E..U..E..
 0040 c6488d3d 00000000 b8000000 00e80000  .H.=............
 0050 0000ebb4 c9c3                        ......          
Contents of section .rodata:
 0000 2578006d 79737465 7279203d 20256420  %x.mystery = %d 
 0010 28307825 78290a00                    (0x%x)..        
Contents of section .debug_info:
 0000 e6020000 04000000 00000801 00000000  ................
 0010 0c000000 00000000 00000000 00000000  ................
 0020 00560000 00000000 00000000 00020000  .V..............
 0030 000002d8 17390000 00030807 00000000  .....9..........
 0040 03040700 00000004 08030108 00000000  ................
 0050 03020700 00000003 01060000 00000302  ................
 0060 05000000 00050405 696e7400 03080500  ........int.....
 0070 00000002 00000000 0396196c 00000002  ...........l....
 0080 00000000 03971b6c 00000006 08910000  .......l........
 0090 00030106 00000000 07000000 00d80431  ...............1
 00a0 081f0200 00080000 00000433 07650000  ...........3.e..
 00b0 00000800 00000004 36098b00 00000808  ........6.......
 00c0 00000000 0437098b 00000010 08000000  .....7..........
 00d0 00043809 8b000000 18080000 00000439  ..8............9
 00e0 098b0000 00200800 00000004 3a098b00  ..... ......:...
 00f0 00002808 00000000 043b098b 00000030  ..(......;.....0
 0100 08000000 00043c09 8b000000 38080000  ......<.....8...
 0110 0000043d 098b0000 00400800 00000004  ...=.....@......
 0120 40098b00 00004808 00000000 0441098b  @.....H......A..
 0130 00000050 08000000 00044209 8b000000  ...P......B.....
 0140 58080000 00000444 16380200 00600800  X......D.8...`..
 0150 00000004 46143e02 00006808 00000000  ....F.>...h.....
 0160 04480765 00000070 08000000 00044907  .H.e...p......I.
 0170 65000000 74080000 0000044a 0b730000  e...t......J.s..
 0180 00780800 00000004 4d125000 00008008  .x......M.P.....
 0190 00000000 044e0f57 00000082 08000000  .....N.W........
 01a0 00044f08 44020000 83080000 00000451  ..O.D..........Q
 01b0 0f540200 00880800 00000004 590d7f00  .T..........Y...
 01c0 00009008 00000000 045b175f 02000098  .........[._....
 01d0 08000000 00045c19 6a020000 a0080000  ......\.j.......
 01e0 0000045d 143e0200 00a80800 00000004  ...].>..........
 01f0 5e094700 0000b008 00000000 045f0a2d  ^.G.........._.-
 0200 000000b8 08000000 00046007 65000000  ..........`.e...
 0210 c0080000 00000462 08700200 00c40002  .......b.p......
 0220 00000000 05071998 00000009 00000000  ................
 0230 042b0e0a 00000000 06083302 00000608  .+........3.....
 0240 98000000 0b910000 00540200 000c3900  .........T....9.
 0250 00000000 06082b02 00000a00 00000006  ......+.........
 0260 085a0200 000a0000 00000608 65020000  .Z..........e...
 0270 0b910000 00800200 000c3900 00001300  ..........9.....
 0280 0d000000 0006890e 8c020000 06081f02  ................
 0290 00000d00 00000006 8a0e8c02 00000d00  ................
 02a0 00000006 8b0e8c02 00000e00 00000001  ................
 02b0 05056500 00000000 00000000 00005600  ..e...........V.
 02c0 00000000 0000019c 0f000000 00106900  ..............i.
 02d0 01071240 00000002 9168106d 00010912  ...@.....h.m....
 02e0 40000000 02916c00 0000               @.....l...      
Contents of section .debug_abbrev:
 0000 01110125 0e130b03 0e1b0e11 01120710  ...%............
 0010 17000002 1600030e 3a0b3b0b 390b4913  ........:.;.9.I.
 0020 00000324 000b0b3e 0b030e00 00040f00  ...$...>........
 0030 0b0b0000 0524000b 0b3e0b03 08000006  .....$...>......
 0040 0f000b0b 49130000 07130103 0e0b0b3a  ....I..........:
 0050 0b3b0b39 0b011300 00080d00 030e3a0b  .;.9..........:.
 0060 3b0b390b 4913380b 00000916 00030e3a  ;.9.I.8........:
 0070 0b3b0b39 0b00000a 1300030e 3c190000  .;.9........<...
 0080 0b010149 13011300 000c2100 49132f0b  ...I......!.I./.
 0090 00000d34 00030e3a 0b3b0b39 0b49133f  ...4...:.;.9.I.?
 00a0 193c1900 000e2e01 3f19030e 3a0b3b0b  .<......?...:.;.
 00b0 390b4913 11011207 40189642 1900000f  9.I.....@..B....
 00c0 0b015517 00001034 0003083a 0b3b0b39  ..U....4...:.;.9
 00d0 0b491302 18000000                    .I......        
Contents of section .debug_aranges:
 0000 2c000000 02000000 00000800 00000000  ,...............
 0010 00000000 00000000 56000000 00000000  ........V.......
 0020 00000000 00000000 00000000 00000000  ................
Contents of section .debug_ranges:
 0000 08000000 00000000 25000000 00000000  ........%.......
 0010 2c000000 00000000 52000000 00000000  ,.......R.......
 0020 00000000 00000000 00000000 00000000  ................
Contents of section .debug_line:
 0000 0f010000 0200df00 00000101 fb0e0d00  ................
 0010 01010101 00000001 0000012f 7573722f  .........../usr/
 0020 6c69622f 6763632f 7838365f 36342d6c  lib/gcc/x86_64-l
 0030 696e7578 2d676e75 2f382f69 6e636c75  inux-gnu/8/inclu
 0040 6465002f 7573722f 696e636c 7564652f  de./usr/include/
 0050 7838365f 36342d6c 696e7578 2d676e75  x86_64-linux-gnu
 0060 2f626974 73002f75 73722f69 6e636c75  /bits./usr/inclu
 0070 64652f78 38365f36 342d6c69 6e75782d  de/x86_64-linux-
 0080 676e752f 62697473 2f747970 6573002f  gnu/bits/types./
 0090 7573722f 696e636c 75646500 00696465  usr/include..ide
 00a0 6e746966 792e6300 00000073 74646465  ntify.c....stdde
 00b0 662e6800 01000074 79706573 2e680002  f.h....types.h..
 00c0 00007374 72756374 5f46494c 452e6800  ..struct_FILE.h.
 00d0 03000046 494c452e 68000300 00737464  ...FILE.h....std
 00e0 696f2e68 00040000 00050c00 09020000  io.h............
 00f0 00000000 00001605 09850508 0874050a  .............t..
 0100 5c051671 0505c905 0d087e05 01350202  \..q......~..5..
 0110 000101                               ...             
Contents of section .debug_str:
 0000 5f494f5f 6275665f 656e6400 6964656e  _IO_buf_end.iden
 0010 74696679 2e63005f 494f5f73 6176655f  tify.c._IO_save_
 0020 656e6400 73686f72 7420696e 74007369  end.short int.si
 0030 7a655f74 005f6f66 66736574 005f494f  ze_t._offset._IO
 0040 5f777269 74655f70 7472005f 666c6167  _write_ptr._flag
 0050 73005f49 4f5f6275 665f6261 7365005f  s._IO_buf_base._
 0060 6d61726b 65727300 5f494f5f 72656164  markers._IO_read
 0070 5f656e64 005f6672 65657265 735f6275  _end._freeres_bu
 0080 66007374 64657272 005f6c6f 636b006c  f.stderr._lock.l
 0090 6f6e6720 696e7400 5f637572 5f636f6c  ong int._cur_col
 00a0 756d6e00 5f494f5f 46494c45 00474e55  umn._IO_FILE.GNU
 00b0 20433131 20382e33 2e30202d 6d74756e   C11 8.3.0 -mtun
 00c0 653d6765 6e657269 63202d6d 61726368  e=generic -march
 00d0 3d783836 2d363420 2d67202d 7374643d  =x86-64 -g -std=
 00e0 63313100 756e7369 676e6564 20636861  c11.unsigned cha
 00f0 72007369 676e6564 20636861 72005f63  r.signed char._c
 0100 6f646563 76740075 6e736967 6e656420  odecvt.unsigned 
 0110 696e7400 5f494f5f 6d61726b 6572005f  int._IO_marker._
 0120 73686f72 74627566 005f6f6c 645f6f66  shortbuf._old_of
 0130 66736574 005f494f 5f777269 74655f62  fset._IO_write_b
 0140 61736500 5f756e75 73656432 005f494f  ase._unused2._IO
 0150 5f726561 645f7074 72007368 6f727420  _read_ptr.short 
 0160 756e7369 676e6564 20696e74 00636861  unsigned int.cha
 0170 72006d61 696e005f 77696465 5f646174  r.main._wide_dat
 0180 61005f66 72656572 65735f6c 69737400  a._freeres_list.
 0190 2f686f6d 652f6a67 6f72646f 33392f69  /home/jgordo39/i
 01a0 32323061 2f737562 6d69742f 6c616235  220a/submit/lab5
 01b0 2f657865 72636973 65732f69 64656e74  /exercises/ident
 01c0 69667900 5f5f7061 6435005f 494f5f63  ify.__pad5._IO_c
 01d0 6f646563 7674006c 6f6e6720 756e7369  odecvt.long unsi
 01e0 676e6564 20696e74 005f494f 5f777269  gned int._IO_wri
 01f0 74655f65 6e64005f 5f6f6666 36345f74  te_end.__off64_t
 0200 005f5f6f 66665f74 005f6368 61696e00  .__off_t._chain.
 0210 5f494f5f 77696465 5f646174 61005f49  _IO_wide_data._I
 0220 4f5f6261 636b7570 5f626173 65007374  O_backup_base.st
 0230 64696e00 5f666c61 67733200 5f6d6f64  din._flags2._mod
 0240 65005f49 4f5f7265 61645f62 61736500  e._IO_read_base.
 0250 5f767461 626c655f 6f666673 6574005f  _vtable_offset._
 0260 494f5f73 6176655f 62617365 005f6669  IO_save_base._fi
 0270 6c656e6f 0046494c 45007374 646f7574  leno.FILE.stdout
 0280 005f494f 5f6c6f63 6b5f7400           ._IO_lock_t.    
Contents of section .comment:
 0000 00474343 3a202844 65626961 6e20382e  .GCC: (Debian 8.
 0010 332e302d 36292038 2e332e30 00        3.0-6) 8.3.0.   
Contents of section .eh_frame:
 0000 14000000 00000000 017a5200 01781001  .........zR..x..
 0010 1b0c0708 90010000 1c000000 1c000000  ................
 0020 00000000 56000000 00410e10 8602430d  ....V....A....C.
 0030 0602510c 07080000                    ..Q.....        

Disassembly of section .text:

0000000000000000 <main>:
   0:	55                   	push   %rbp
   1:	48 89 e5             	mov    %rsp,%rbp
   4:	48 83 ec 10          	sub    $0x10,%rsp
   8:	48 8d 45 f8          	lea    -0x8(%rbp),%rax
   c:	48 89 c6             	mov    %rax,%rsi
   f:	48 8d 3d 00 00 00 00 	lea    0x0(%rip),%rdi        # 16 <main+0x16>
  16:	b8 00 00 00 00       	mov    $0x0,%eax
  1b:	e8 00 00 00 00       	callq  20 <main+0x20>
  20:	83 f8 01             	cmp    $0x1,%eax
  23:	74 07                	je     2c <main+0x2c>
  25:	b8 00 00 00 00       	mov    $0x0,%eax
  2a:	eb 28                	jmp    54 <main+0x54>
  2c:	8b 45 f8             	mov    -0x8(%rbp),%eax
  2f:	89 c7                	mov    %eax,%edi
  31:	e8 00 00 00 00       	callq  36 <main+0x36>
  36:	89 45 fc             	mov    %eax,-0x4(%rbp)
  39:	8b 55 fc             	mov    -0x4(%rbp),%edx
  3c:	8b 45 fc             	mov    -0x4(%rbp),%eax
  3f:	89 c6                	mov    %eax,%esi
  41:	48 8d 3d 00 00 00 00 	lea    0x0(%rip),%rdi        # 48 <main+0x48>
  48:	b8 00 00 00 00       	mov    $0x0,%eax
  4d:	e8 00 00 00 00       	callq  52 <main+0x52>
  52:	eb b4                	jmp    8 <main+0x8>
  54:	c9                   	leaveq 
  55:	c3                   	retq   
jgordo39@remote07:~/i220a/submit/lab5/exercises/identify$ cs //[K[K/[K..
bash: cs: command not found
jgordo39@remote07:~/i220a/submit/lab5/exercises/identify$ cd//[K[K..
bash: cd..: command not found
jgordo39@remote07:~/i220a/submit/lab5/exercises/identify$ cd.. ..
jgordo39@remote07:~/i220a/submit/lab5/exercises$ ls
2  hello.c  identify  Makefile
jgordo39@remote07:~/i220a/submit/lab5/exercises$ naje
bash: naje: command not found
jgordo39@remote07:~/i220a/submit/lab5/exercises$ make
cc -g -Wall  -std=c18    hello.c   -o hello
cc -g -Wall  -std=c18 -S hello.c
jgordo39@remote07:~/i220a/submit/lab5/exercises$ gdb hello
GNU gdb (Debian 8.2.1-2+b3) 8.2.1
Copyright (C) 2018 Free Software Foundation, Inc.
License GPLv3+: GNU GPL version 3 or later <http://gnu.org/licenses/gpl.html>
This is free software: you are free to change and redistribute it.
There is NO WARRANTY, to the extent permitted by law.
Type "show copying" and "show warranty" for details.
This GDB was configured as "x86_64-linux-gnu".
Type "show configuration" for configuration details.
For bug reporting instructions, please see:
<http://www.gnu.org/software/gdb/bugs/>.
Find the GDB manual and other documentation resources online at:
    <http://www.gnu.org/software/gdb/documentation/>.

For help, type "help".
Type "apropos word" to search for commands related to "word"...
Reading symbols from hello...done.
(gdb) r[Kb mi[Kain
Breakpoint 1 at 0x1183: file hello.c, line 16.
(gdb) r
Starting program: /import/linux/home1/jgordo39/projects/i220a/submit/lab5/exercises/hello 

Breakpoint 1, main (argc=1, argv=0x7fffffffe778) at hello.c:16
16	  if (argc == 1) {
(gdb) disas /m
Dump of assembler code for function main:
15	{
   0x0000555555555174 <+0>:	push   %rbp
   0x0000555555555175 <+1>:	mov    %rsp,%rbp
   0x0000555555555178 <+4>:	sub    $0x20,%rsp
   0x000055555555517c <+8>:	mov    %edi,-0x14(%rbp)
   0x000055555555517f <+11>:	mov    %rsi,-0x20(%rbp)

16	  if (argc == 1) {
=> 0x0000555555555183 <+15>:	cmpl   $0x1,-0x14(%rbp)
   0x0000555555555187 <+19>:	jne    0x5555555551b5 <main+65>

17	    fprintf(stderr, "usage: %s NAME...\n", argv[0]);
   0x0000555555555189 <+21>:	mov    -0x20(%rbp),%rax
   0x000055555555518d <+25>:	mov    (%rax),%rdx
   0x0000555555555190 <+28>:	mov    0x2ec9(%rip),%rax        # 0x555555558060 <stderr@@GLIBC_2.2.5>
   0x0000555555555197 <+35>:	lea    0xe70(%rip),%rsi        # 0x55555555600e
   0x000055555555519e <+42>:	mov    %rax,%rdi
   0x00005555555551a1 <+45>:	mov    $0x0,%eax
   0x00005555555551a6 <+50>:	callq  0x555555555030 <fprintf@plt>

18	    exit(0xdeadbeef);
   0x00005555555551ab <+55>:	mov    $0xdeadbeef,%edi
   0x00005555555551b0 <+60>:	callq  0x555555555040 <exit@plt>

19	  }
20	  for (int i = 1; i < argc; i++) {
   0x00005555555551b5 <+65>:	movl   $0x1,-0x4(%rbp)
   0x00005555555551bc <+72>:	jmp    0x5555555551eb <main+119>
   0x00005555555551e7 <+115>:	addl   $0x1,-0x4(%rbp)
   0x00005555555551eb <+119>:	mov    -0x4(%rbp),%eax
   0x00005555555551ee <+122>:	cmp    -0x14(%rbp),%eax
   0x00005555555551f1 <+125>:	jl     0x5555555551be <main+74>

21	    hello(stdout, argv[i]);
   0x00005555555551be <+74>:	mov    -0x4(%rbp),%eax
   0x00005555555551c1 <+77>:	cltq   
--Type <RET> for more, q to quit, c to continue without paging--i [K[Kc
   0x00005555555551c3 <+79>:	lea    0x0(,%rax,8),%rdx
   0x00005555555551cb <+87>:	mov    -0x20(%rbp),%rax
   0x00005555555551cf <+91>:	add    %rdx,%rax
   0x00005555555551d2 <+94>:	mov    (%rax),%rdx
   0x00005555555551d5 <+97>:	mov    0x2e64(%rip),%rax        # 0x555555558040 <stdout@@GLIBC_2.2.5>
   0x00005555555551dc <+104>:	mov    %rdx,%rsi
   0x00005555555551df <+107>:	mov    %rax,%rdi
   0x00005555555551e2 <+110>:	callq  0x555555555145 <hello>

22	  }
23	  return 0;
   0x00005555555551f3 <+127>:	mov    $0x0,%eax

24	}
   0x00005555555551f8 <+132>:	leaveq 
   0x00005555555551f9 <+133>:	retq   

End of assembler dump.
(gdb) if [K[K reg
rax            0x555555555174      93824992235892
rbx            0x0                 0
rcx            0x7ffff7f8e718      140737353672472
rdx            0x7fffffffe788      140737488349064
rsi            0x7fffffffe778      140737488349048
rdi            0x1                 1
rbp            0x7fffffffe690      0x7fffffffe690
rsp            0x7fffffffe670      0x7fffffffe670
r8             0x7ffff7f8fd80      140737353678208
r9             0x7ffff7f8fd80      140737353678208
r10            0x3                 3
r11            0x0                 0
r12            0x555555555060      93824992235616
r13            0x7fffffffe770      140737488349040
r14            0x0                 0
r15            0x0                 0
rip            0x555555555183      0x555555555183 <main+15>
eflags         0x202               [ IF ]
cs             0x33                51
ss             0x2b                43
ds             0x0                 0
es             0x0                 0
fs             0x0                 0
gs             0x0                 0
(gdb) reg
Undefined command: "reg".  Try "help".
(gdb) reg i
Undefined command: "reg".  Try "help".
(gdb) i re[K[K[K[Kclear
Deleted breakpoint 1 
(gdb) clear
No breakpoint at this line.
(gdb) quit
A debugging session is active.

	Inferior 1 [process 2417698] will be killed.

Quit anyway? (y or n) y
jgordo39@remote07:~/i220a/submit/lab5/exercises$ gdb hello[K[K[K[K[K[K[K[K[Kmake
make: Nothing to be done for 'all'.
jgordo39@remote07:~/i220a/submit/lab5/exercises$ makegdb hello
GNU gdb (Debian 8.2.1-2+b3) 8.2.1
Copyright (C) 2018 Free Software Foundation, Inc.
License GPLv3+: GNU GPL version 3 or later <http://gnu.org/licenses/gpl.html>
This is free software: you are free to change and redistribute it.
There is NO WARRANTY, to the extent permitted by law.
Type "show copying" and "show warranty" for details.
This GDB was configured as "x86_64-linux-gnu".
Type "show configuration" for configuration details.
For bug reporting instructions, please see:
<http://www.gnu.org/software/gdb/bugs/>.
Find the GDB manual and other documentation resources online at:
    <http://www.gnu.org/software/gdb/documentation/>.

For help, type "help".
Type "apropos word" to search for commands related to "word"...
Reading symbols from hello...done.
(gdb) b main
Breakpoint 1 at 0x1183: file hello.c, line 16.
(gdb) r
Starting program: /import/linux/home1/jgordo39/projects/i220a/submit/lab5/exercises/hello 

Breakpoint 1, main (argc=1, argv=0x7fffffffe778) at hello.c:16
16	  if (argc == 1) {
(gdb) dos[K[Kisas /m
Dump of assembler code for function main:
15	{
   0x0000555555555174 <+0>:	push   %rbp
   0x0000555555555175 <+1>:	mov    %rsp,%rbp
   0x0000555555555178 <+4>:	sub    $0x20,%rsp
   0x000055555555517c <+8>:	mov    %edi,-0x14(%rbp)
   0x000055555555517f <+11>:	mov    %rsi,-0x20(%rbp)

16	  if (argc == 1) {
=> 0x0000555555555183 <+15>:	cmpl   $0x1,-0x14(%rbp)
   0x0000555555555187 <+19>:	jne    0x5555555551b5 <main+65>

17	    fprintf(stderr, "usage: %s NAME...\n", argv[0]);
   0x0000555555555189 <+21>:	mov    -0x20(%rbp),%rax
   0x000055555555518d <+25>:	mov    (%rax),%rdx
   0x0000555555555190 <+28>:	mov    0x2ec9(%rip),%rax        # 0x555555558060 <stderr@@GLIBC_2.2.5>
   0x0000555555555197 <+35>:	lea    0xe70(%rip),%rsi        # 0x55555555600e
   0x000055555555519e <+42>:	mov    %rax,%rdi
   0x00005555555551a1 <+45>:	mov    $0x0,%eax
   0x00005555555551a6 <+50>:	callq  0x555555555030 <fprintf@plt>

18	    exit(0xdeadbeef);
   0x00005555555551ab <+55>:	mov    $0xdeadbeef,%edi
   0x00005555555551b0 <+60>:	callq  0x555555555040 <exit@plt>

19	  }
20	  for (int i = 1; i < argc; i++) {
   0x00005555555551b5 <+65>:	movl   $0x1,-0x4(%rbp)
   0x00005555555551bc <+72>:	jmp    0x5555555551eb <main+119>
   0x00005555555551e7 <+115>:	addl   $0x1,-0x4(%rbp)
   0x00005555555551eb <+119>:	mov    -0x4(%rbp),%eax
   0x00005555555551ee <+122>:	cmp    -0x14(%rbp),%eax
   0x00005555555551f1 <+125>:	jl     0x5555555551be <main+74>

21	    hello(stdout, argv[i]);
   0x00005555555551be <+74>:	mov    -0x4(%rbp),%eax
   0x00005555555551c1 <+77>:	cltq   
--Type <RET> for more, q to quit, c to continue without paging--
   0x00005555555551c3 <+79>:	lea    0x0(,%rax,8),%rdx
   0x00005555555551cb <+87>:	mov    -0x20(%rbp),%rax
   0x00005555555551cf <+91>:	add    %rdx,%rax
   0x00005555555551d2 <+94>:	mov    (%rax),%rdx
   0x00005555555551d5 <+97>:	mov    0x2e64(%rip),%rax        # 0x555555558040 <stdout@@GLIBC_2.2.5>
   0x00005555555551dc <+104>:	mov    %rdx,%rsi
   0x00005555555551df <+107>:	mov    %rax,%rdi
   0x00005555555551e2 <+110>:	callq  0x555555555145 <hello>

22	  }
23	  return 0;
   0x00005555555551f3 <+127>:	mov    $0x0,%eax

24	}
   0x00005555555551f8 <+132>:	leaveq 
   0x00005555555551f9 <+133>:	retq   

End of assembler dump.
(gdb) i ref[Kd[Kg
rax            0x555555555174      93824992235892
rbx            0x0                 0
rcx            0x7ffff7f8e718      140737353672472
rdx            0x7fffffffe788      140737488349064
rsi            0x7fffffffe778      140737488349048
rdi            0x1                 1
rbp            0x7fffffffe690      0x7fffffffe690
rsp            0x7fffffffe670      0x7fffffffe670
r8             0x7ffff7f8fd80      140737353678208
r9             0x7ffff7f8fd80      140737353678208
r10            0x3                 3
r11            0x0                 0
r12            0x555555555060      93824992235616
r13            0x7fffffffe770      140737488349040
r14            0x0                 0
r15            0x0                 0
rip            0x555555555183      0x555555555183 <main+15>
eflags         0x202               [ IF ]
cs             0x33                51
ss             0x2b                43
ds             0x0                 0
es             0x0                 0
fs             0x0                 0
gs             0x0                 0
(gdb) p argc
$1 = 1
(gdb) p *($rbp = [K[K- 20)
Attempt to dereference a generic pointer.
(gdb) p *(int *)($rbp -20)
$2 = 1
(gdb) p argv
$3 = (const char **) 0x7fffffffe778
(gdb) 
$4 = (const char **) 0x7fffffffe778
(gdb) 
$5 = (const char **) 0x7fffffffe778
(gdb) 
$6 = (const char **) 0x7fffffffe778
(gdb) p *const[K[K[K[K[K(const char***)($re[Ks[Kbp =[K- 32)
$7 = (const char **) 0x7fffffffe778
(gdb) p argv[0]4[K
$8 = 0x7fffffffe9e1 "/import/linux/home1/jgordo39/projects/i220a/submit/lab5/exercises/hello"
(gdb) p (*(const char ***)($rs[Kbp - 0x20))[0]
$9 = 0x7fffffffe9e1 "/import/linux/home1/jgordo39/projects/i220a/submit/lab5/exercises/hello"
(gdb) display /i *$pc
1: x/i *$pc
=> 0x555555555183 <main+15>:	cmpl   $0x1,-0x14(%rbp)
(gdb) p $eflags
$10 = [ IF ]
(gdb) ni
0x0000555555555187	16	  if (argc == 1) {
1: x/i *$pc
=> 0x555555555187 <main+19>:	jne    0x5555555551b5 <main+65>
(gdb) ni
17	    fprintf(stderr, "usage: %s NAME...\n", argv[0]);
1: x/i *$pc
=> 0x555555555189 <main+21>:	mov    -0x20(%rbp),%rax
(gdb) displaut[K[Kt
Undefined command: "displat".  Try "help".
(gdb) displat[Ky
1: x/i *$pc
=> 0x555555555189 <main+21>:	mov    -0x20(%rbp),%rax
(gdb) 
1: x/i *$pc
=> 0x555555555189 <main+21>:	mov    -0x20(%rbp),%rax
(gdb) 
1: x/i *$pc
=> 0x555555555189 <main+21>:	mov    -0x20(%rbp),%rax
(gdb) p W$[K[K$eflags
$11 = [ PF ZF IF ]
(gdb) list
12	/** Say hello to 1-or-more command-line arguments. */
13	int
14	main(int argc, const char *argv[])
15	{
16	  if (argc == 1) {
17	    fprintf(stderr, "usage: %s NAME...\n", argv[0]);
18	    exit(0xdeadbeef);
19	  }
20	  for (int i = 1; i < argc; i++) {
21	    hello(stdout, argv[i]);
(gdb) n
usage: /import/linux/home1/jgordo39/projects/i220a/submit/lab5/exercises/hello NAME...
18	    exit(0xdeadbeef);
1: x/i *$pc
=> 0x5555555551ab <main+55>:	mov    $0xdeadbeef,%edi
(gdb) 
[Inferior 1 (process 2418235) exited with code 0357]
(gdb) 
The program is not being run.
(gdb) r
Starting program: /import/linux/home1/jgordo39/projects/i220a/submit/lab5/exercises/hello 

Breakpoint 1, main (argc=1, argv=0x7fffffffe778) at hello.c:16
16	  if (argc == 1) {
1: x/i *$pc
=> 0x555555555183 <main+15>:	cmpl   $0x1,-0x14(%rbp)
(gdb) ni
0x0000555555555187	16	  if (argc == 1) {
1: x/i *$pc
=> 0x555555555187 <main+19>:	jne    0x5555555551b5 <main+65>
(gdb) ni
17	    fprintf(stderr, "usage: %s NAME...\n", argv[0]);
1: x/i *$pc
=> 0x555555555189 <main+21>:	mov    -0x20(%rbp),%rax
(gdb) 
0x000055555555518d	17	    fprintf(stderr, "usage: %s NAME...\n", argv[0]);
1: x/i *$pc
=> 0x55555555518d <main+25>:	mov    (%rax),%rdx
(gdb) 
0x0000555555555190	17	    fprintf(stderr, "usage: %s NAME...\n", argv[0]);
1: x/i *$pc
=> 0x555555555190 <main+28>:	
    mov    0x2ec9(%rip),%rax        # 0x555555558060 <stderr@@GLIBC_2.2.5>
(gdb) 
0x0000555555555197	17	    fprintf(stderr, "usage: %s NAME...\n", argv[0]);
1: x/i *$pc
=> 0x555555555197 <main+35>:	lea    0xe70(%rip),%rsi        # 0x55555555600e
(gdb) 
0x000055555555519e	17	    fprintf(stderr, "usage: %s NAME...\n", argv[0]);
1: x/i *$pc
=> 0x55555555519e <main+42>:	mov    %rax,%rdi
(gdb) 
0x00005555555551a1	17	    fprintf(stderr, "usage: %s NAME...\n", argv[0]);
1: x/i *$pc
=> 0x5555555551a1 <main+45>:	mov    $0x0,%eax
(gdb) 
0x00005555555551a6	17	    fprintf(stderr, "usage: %s NAME...\n", argv[0]);
1: x/i *$pc
=> 0x5555555551a6 <main+50>:	callq  0x555555555030 <fprintf@plt>
(gdb) p stderr
$12 = (FILE *) 0x7ffff7f8f680 <_IO_2_1_stderr_>
(gdb) p *(char ***)($rdi - $rdx)
Cannot access memory at address 0xfffffffff7f90c9f
(gdb) p *(char ***)($rdi - $rdx)[C[C[C[C[C[C[C[Cstderr[K[C[C[C[C[C[Cni[K[1Prnlistp $eflags[C[C[C[C[C[C[2Pdisplaytni[Kp $eflags[C[C[C[C[C[Cdisplay /i *$pc[C[C[C[C[C[Cp (*(const char ***)($rbp - 0x20))[0][C[C[C[C[C[C[C[Cargv[0][K*(const char***)($rbp - 32)[C[C[C[C[C[C[C[Cargv[K*(int *)($rbp -20)[C[C[C[C[C[C[C[Cargv[K*(const char***)($rbp - 32)[C[C[C[C[C[C[C[Cargv[0][K(*(const char ***)($rbp - 0x20))[0][C[C[C[C[C[C[22Pdisplay /i *$pc[C[C[C[C[C[C[6Pp $eflags[C[C[C[C[C[Cni[Kdisplatyp $eflags[C[C[C[C[C[C[5Plistn[Krnip stderr*(char ***)($rdi - $rdx)[C[C[C[C[C[C[Kp *(char ***)($rdi - $rdx)[1P[1P[1P[1P[1P[1P[1P[1P[1@i[1@n[1@t[1@ [1@*
Cannot access memory at address 0xfffffffff7f90c9f
(gdb) p *(int *)($rdi - $rdx)[1P)[1P)[1P)[1P)[1P)[1P)[1P)
$13 = -72540026
(gdb) p *(int *)($rdi)[1P *)($rdi)[1P *)($rdi)[1P *)($rdi)c *)($rdi)h *)($rdi)a *)($rdi)r *)($rdi)* *)($rdi)* *)($rdi)[C[1P*)($rdi)
$14 = (char **) 0xfbad2086
(gdb) p *(char***)($rdi)[1P)($rdi)[1P)($rdi)
$15 = -122 '\206'
(gdb) p *(char*)($rdi)\)x)[1P)[1P)x)
Invalid cast.
(gdb) p *(char*)($rdix)[1Px)
$16 = 47 '/'
(gdb) p *(char*)($rdx)[C[1P(char*)($rdx)[C[C[C[C[C[C[C[C
$17 = 0x7fffffffe9e1 "/import/linux/home1/jgordo39/projects/i220a/submit/lab5/exercises/hello"
(gdb) p (char*)($rdx)[1P)i)
$18 = 0x7ffff7f8f680 <_IO_2_1_stderr_> "\206 \255", <incomplete sequence \373>
(gdb) i reg
rax            0x0                 0
rbx            0x0                 0
rcx            0x7ffff7f8e718      140737353672472
rdx            0x7fffffffe9e1      140737488349665
rsi            0x55555555600e      93824992239630
rdi            0x7ffff7f8f680      140737353676416
rbp            0x7fffffffe690      0x7fffffffe690
rsp            0x7fffffffe670      0x7fffffffe670
r8             0x7ffff7f8fd80      140737353678208
r9             0x7ffff7f8fd80      140737353678208
r10            0x3                 3
r11            0x0                 0
r12            0x555555555060      93824992235616
r13            0x7fffffffe770      140737488349040
r14            0x0                 0
r15            0x0                 0
rip            0x5555555551a6      0x5555555551a6 <main+50>
eflags         0x246               [ PF ZF IF ]
cs             0x33                51
ss             0x2b                43
ds             0x0                 0
es             0x0                 0
fs             0x0                 0
gs             0x0                 0
(gdb) i regp (char*)($rdi)[C*)($rdi)
$19 = (char **) 0x7ffff7f8f680 <_IO_2_1_stderr_>
(gdb) p (char**)($rdi)*)($rdi)
$20 = (char ***) 0x7ffff7f8f680 <_IO_2_1_stderr_>
(gdb) p (char***)($rdi)[1P)($rdi)[1P)($rdi)
$21 = 0x7ffff7f8f680 <_IO_2_1_stderr_> "\206 \255", <incomplete sequence \373>
(gdb) p (char*)($rdi) )-) )2)0)
$22 = 0x7ffff7f8f66c ""
(gdb) p (char*)($rdi - 20)[C[1@*[C[1@*
$23 = (char ***) 0x7ffff7f8f66c
(gdb) p (char***)($rdi - 20)[1P
$24 = (char **) 0x7ffff7f8f66c
(gdb) p (char**)($rdi - 20)[1@*
$25 = 0x0
(gdb) p *(char**)($rdi - 20)[1P
$26 = 0 '\000'
(gdb) p *(char*)($rdi - 20)[1P[1P[1P[1@r[1@s[1@i
$27 = 0 '\000'
(gdb) p *(char*)($rsi - 20)[C[C[C[C[C[C[1@*[C[1@*
$28 = (char **) 0x1000000000000
(gdb) p *(char***)($rsi - 20)[1P
$29 = 0x1000000000000 <error: Cannot access memory at address 0x1000000000000>
(gdb) p *(char**)($rsi - 20)[1@*[C[C[C[C[C[C[C[C[C[C[C[C
$30 = (char **) 0x1000000000000
(gdb) p *(char***)($rsi - 20)[C[1P[1P[1@d[1P[1@d[1@x
$31 = (char **) 0x1165d736de782a28
(gdb) p *(char***)($rdx - 20)[C[1P[1P
$32 = 40 '('
(gdb) p *(char*)($rdx - 20)[1P[1@k[1P[1@i
$33 = 0 '\000'
(gdb) q
A debugging session is active.

	Inferior 1 [process 2422775] will be killed.

Quit anyway? (y or n) n
Not confirmed.
(gdb) 
A debugging session is active.

	Inferior 1 [process 2422775] will be killed.

Quit anyway? (y or n) n
Not confirmed.
(gdb) n
usage: /import/linux/home1/jgordo39/projects/i220a/submit/lab5/exercises/hello NAME...
18	    exit(0xdeadbeef);
1: x/i *$pc
=> 0x5555555551ab <main+55>:	mov    $0xdeadbeef,%edi
(gdb) 
[Inferior 1 (process 2422775) exited with code 0357]
(gdb) 
The program is not being run.
(gdb) 
The program is not being run.
(gdb) 
The program is not being run.
(gdb) q
jgordo39@remote07:~/i220a/submit/lab5/exercises$ gdb hello
GNU gdb (Debian 8.2.1-2+b3) 8.2.1
Copyright (C) 2018 Free Software Foundation, Inc.
License GPLv3+: GNU GPL version 3 or later <http://gnu.org/licenses/gpl.html>
This is free software: you are free to change and redistribute it.
There is NO WARRANTY, to the extent permitted by law.
Type "show copying" and "show warranty" for details.
This GDB was configured as "x86_64-linux-gnu".
Type "show configuration" for configuration details.
For bug reporting instructions, please see:
<http://www.gnu.org/software/gdb/bugs/>.
Find the GDB manual and other documentation resources online at:
    <http://www.gnu.org/software/gdb/documentation/>.

For help, type "help".
Type "apropos word" to search for commands related to "word"...
Reading symbols from hello...done.
(gdb) r jpi[K[Koe
Starting program: /import/linux/home1/jgordo39/projects/i220a/submit/lab5/exercises/hello joe
hello joe
[Inferior 1 (process 2427388) exited normally]
(gdb) b main
Breakpoint 1 at 0x555555555183: file hello.c, line 16.
(gdb) r joe
Starting program: /import/linux/home1/jgordo39/projects/i220a/submit/lab5/exercises/hello joe

Breakpoint 1, main (argc=2, argv=0x7fffffffe758) at hello.c:16
16	  if (argc == 1) {
(gdb) list
11	
12	/** Say hello to 1-or-more command-line arguments. */
13	int
14	main(int argc, const char *argv[])
15	{
16	  if (argc == 1) {
17	    fprintf(stderr, "usage: %s NAME...\n", argv[0]);
18	    exit(0xdeadbeef);
19	  }
20	  for (int i = 1; i < argc; i++) {
(gdb) i reg
rax            0x555555555174      93824992235892
rbx            0x0                 0
rcx            0x7ffff7f8e718      140737353672472
rdx            0x7fffffffe770      140737488349040
rsi            0x7fffffffe758      140737488349016
rdi            0x2                 2
rbp            0x7fffffffe670      0x7fffffffe670
rsp            0x7fffffffe650      0x7fffffffe650
r8             0x7ffff7f8fd80      140737353678208
r9             0x7ffff7f8fd80      140737353678208
r10            0x3                 3
r11            0x0                 0
r12            0x555555555060      93824992235616
r13            0x7fffffffe750      140737488349008
r14            0x0                 0
r15            0x0                 0
rip            0x555555555183      0x555555555183 <main+15>
eflags         0x206               [ PF IF ]
cs             0x33                51
ss             0x2b                43
ds             0x0                 0
es             0x0                 0
fs             0x0                 0
gs             0x0                 0
(gdb) ni
0x0000555555555187	16	  if (argc == 1) {
(gdb) 
20	  for (int i = 1; i < argc; i++) {
(gdb) 
20	  for (int i = 1; i < argc; i++) {
(gdb) 
0x00005555555551eb	20	  for (int i = 1; i < argc; i++) {
(gdb) 
0x00005555555551ee	20	  for (int i = 1; i < argc; i++) {
(gdb) 
0x00005555555551f1	20	  for (int i = 1; i < argc; i++) {
(gdb) 
21	    hello(stdout, argv[i]);
(gdb) 
0x00005555555551c1	21	    hello(stdout, argv[i]);
(gdb) av[K[K[ [K[Kp argv[]o][1P]0]
$1 = 0x7fffffffe9dd "/import/linux/home1/jgordo39/projects/i220a/submit/lab5/exercises/hello"
(gdb) p argv[0]cargv[0]hargv[0][Cargv[0]rargv[0][1Pargv[0][1Prgv[0][1Pargv[0][1Pargv[0](argv[0])argv[0]c)argv[0]h)argv[0]a)argv[0]r)argv[0] )argv[0]*)argv[0]
$2 = 0x7fffffffe9dd "/import/linux/home1/jgordo39/projects/i220a/submit/lab5/exercises/hello"
(gdb) p (char *)argv[0][C*)argv[0][C*)argv[0]
$3 = (char ***) 0x7fffffffe9dd
(gdb) p (char ***)argv[0][1P)argv[0][1P)argv[0][C[1@*
$4 = 47 '/'
(gdb) p *(char *)argv[0][C[K[K[K[Kc
Cannot access memory at address 0x2
(gdb) 
Cannot access memory at address 0x2
(gdb) p *(char *)argc[C[C[C[C[C[1@([C[C[C[1@c[1@p[1@m[1@s[1@t[1@ [1P[1P[1P[1P[1P[1@p[1P[1@o[1@n[1@s[1@t[1@ [C[C[C[C[C[C*)argc[C*)argc
A syntax error in expression, near `'.
(gdb) disas /m
Dump of assembler code for function main:
15	{
   0x0000555555555174 <+0>:	push   %rbp
   0x0000555555555175 <+1>:	mov    %rsp,%rbp
   0x0000555555555178 <+4>:	sub    $0x20,%rsp
   0x000055555555517c <+8>:	mov    %edi,-0x14(%rbp)
   0x000055555555517f <+11>:	mov    %rsi,-0x20(%rbp)

16	  if (argc == 1) {
   0x0000555555555183 <+15>:	cmpl   $0x1,-0x14(%rbp)
   0x0000555555555187 <+19>:	jne    0x5555555551b5 <main+65>

17	    fprintf(stderr, "usage: %s NAME...\n", argv[0]);
   0x0000555555555189 <+21>:	mov    -0x20(%rbp),%rax
   0x000055555555518d <+25>:	mov    (%rax),%rdx
   0x0000555555555190 <+28>:	mov    0x2ec9(%rip),%rax        # 0x555555558060 <stderr@@GLIBC_2.2.5>
   0x0000555555555197 <+35>:	lea    0xe70(%rip),%rsi        # 0x55555555600e
   0x000055555555519e <+42>:	mov    %rax,%rdi
   0x00005555555551a1 <+45>:	mov    $0x0,%eax
   0x00005555555551a6 <+50>:	callq  0x555555555030 <fprintf@plt>

18	    exit(0xdeadbeef);
   0x00005555555551ab <+55>:	mov    $0xdeadbeef,%edi
   0x00005555555551b0 <+60>:	callq  0x555555555040 <exit@plt>

19	  }
20	  for (int i = 1; i < argc; i++) {
   0x00005555555551b5 <+65>:	movl   $0x1,-0x4(%rbp)
   0x00005555555551bc <+72>:	jmp    0x5555555551eb <main+119>
   0x00005555555551e7 <+115>:	addl   $0x1,-0x4(%rbp)
   0x00005555555551eb <+119>:	mov    -0x4(%rbp),%eax
   0x00005555555551ee <+122>:	cmp    -0x14(%rbp),%eax
   0x00005555555551f1 <+125>:	jl     0x5555555551be <main+74>

21	    hello(stdout, argv[i]);
   0x00005555555551be <+74>:	mov    -0x4(%rbp),%eax
=> 0x00005555555551c1 <+77>:	cltq   
--Type <RET> for more, q to quit, c to continue without paging--q
Quit
(gdb) q
A debugging session is active.

	Inferior 1 [process 2427523] will be killed.

Quit anyway? (y or n) y
jgordo39@remote07:~/i220a/submit/lab5/exercises$ gdb hello
GNU gdb (Debian 8.2.1-2+b3) 8.2.1
Copyright (C) 2018 Free Software Foundation, Inc.
License GPLv3+: GNU GPL version 3 or later <http://gnu.org/licenses/gpl.html>
This is free software: you are free to change and redistribute it.
There is NO WARRANTY, to the extent permitted by law.
Type "show copying" and "show warranty" for details.
This GDB was configured as "x86_64-linux-gnu".
Type "show configuration" for configuration details.
For bug reporting instructions, please see:
<http://www.gnu.org/software/gdb/bugs/>.
Find the GDB manual and other documentation resources online at:
    <http://www.gnu.org/software/gdb/documentation/>.

For help, type "help".
Type "apropos word" to search for commands related to "word"...
Reading symbols from hello...done.
(gdb) b amin[K[K[K[Kmain
Breakpoint 1 at 0x1183: file hello.c, line 16.
(gdb) disas /m
No frame selected.
(gdb) r joe
Starting program: /import/linux/home1/jgordo39/projects/i220a/submit/lab5/exercises/hello joe

Breakpoint 1, main (argc=2, argv=0x7fffffffe758) at hello.c:16
16	  if (argc == 1) {
(gdb) r joedisas /m
Dump of assembler code for function main:
15	{
   0x0000555555555174 <+0>:	push   %rbp
   0x0000555555555175 <+1>:	mov    %rsp,%rbp
   0x0000555555555178 <+4>:	sub    $0x20,%rsp
   0x000055555555517c <+8>:	mov    %edi,-0x14(%rbp)
   0x000055555555517f <+11>:	mov    %rsi,-0x20(%rbp)

16	  if (argc == 1) {
=> 0x0000555555555183 <+15>:	cmpl   $0x1,-0x14(%rbp)
   0x0000555555555187 <+19>:	jne    0x5555555551b5 <main+65>

17	    fprintf(stderr, "usage: %s NAME...\n", argv[0]);
   0x0000555555555189 <+21>:	mov    -0x20(%rbp),%rax
   0x000055555555518d <+25>:	mov    (%rax),%rdx
   0x0000555555555190 <+28>:	mov    0x2ec9(%rip),%rax        # 0x555555558060 <stderr@@GLIBC_2.2.5>
   0x0000555555555197 <+35>:	lea    0xe70(%rip),%rsi        # 0x55555555600e
   0x000055555555519e <+42>:	mov    %rax,%rdi
   0x00005555555551a1 <+45>:	mov    $0x0,%eax
   0x00005555555551a6 <+50>:	callq  0x555555555030 <fprintf@plt>

18	    exit(0xdeadbeef);
   0x00005555555551ab <+55>:	mov    $0xdeadbeef,%edi
   0x00005555555551b0 <+60>:	callq  0x555555555040 <exit@plt>

19	  }
20	  for (int i = 1; i < argc; i++) {
   0x00005555555551b5 <+65>:	movl   $0x1,-0x4(%rbp)
   0x00005555555551bc <+72>:	jmp    0x5555555551eb <main+119>
   0x00005555555551e7 <+115>:	addl   $0x1,-0x4(%rbp)
   0x00005555555551eb <+119>:	mov    -0x4(%rbp),%eax
   0x00005555555551ee <+122>:	cmp    -0x14(%rbp),%eax
   0x00005555555551f1 <+125>:	jl     0x5555555551be <main+74>

21	    hello(stdout, argv[i]);
   0x00005555555551be <+74>:	mov    -0x4(%rbp),%eax
   0x00005555555551c1 <+77>:	cltq   
--Type <RET> for more, q to quit, c to continue without paging--
   0x00005555555551c3 <+79>:	lea    0x0(,%rax,8),%rdx
   0x00005555555551cb <+87>:	mov    -0x20(%rbp),%rax
   0x00005555555551cf <+91>:	add    %rdx,%rax
   0x00005555555551d2 <+94>:	mov    (%rax),%rdx
   0x00005555555551d5 <+97>:	mov    0x2e64(%rip),%rax        # 0x555555558040 <stdout@@GLIBC_2.2.5>
   0x00005555555551dc <+104>:	mov    %rdx,%rsi
   0x00005555555551df <+107>:	mov    %rax,%rdi
   0x00005555555551e2 <+110>:	callq  0x555555555145 <hello>

22	  }
23	  return 0;
   0x00005555555551f3 <+127>:	mov    $0x0,%eax

24	}
   0x00005555555551f8 <+132>:	leaveq 
   0x00005555555551f9 <+133>:	retq   

End of assembler dump.
(gdb) p * [K(char***)($eax - 4)
Cannot access memory at address 0x55555170
(gdb) p *(char***)($eax - 4)[1@([C[C[C[C[C[C[C[C[C[C[C[C[C[C[C[C[C[C[C[C)
Cannot access memory at address 0x55555170
(gdb) p (*(char***)($eax - 4))[C[1P[1P
Cannot access memory at address 0x55555170
(gdb) p (*(char*)($eax - 4))04))x4))
Cannot access memory at address 0x55555170
(gdb) p (*(char*)($eax - 0x4))[1P[C[C[C[C[C[C[C[C[C[C[C[C[C[C[C[C[C[C[C[C[C\[K[K[K)
Cannot access memory at address 0x55555170
(gdb) p *(char*)($eax - 0x4)[C[1@*[C[1@*
Cannot access memory at address 0x55555170
(gdb) ni
0x0000555555555187	16	  if (argc == 1) {
(gdb) 
20	  for (int i = 1; i < argc; i++) {
(gdb) 
20	  for (int i = 1; i < argc; i++) {
(gdb) 
0x00005555555551eb	20	  for (int i = 1; i < argc; i++) {
(gdb) 
0x00005555555551ee	20	  for (int i = 1; i < argc; i++) {
(gdb) 
0x00005555555551f1	20	  for (int i = 1; i < argc; i++) {
(gdb) 
21	    hello(stdout, argv[i]);
(gdb) 
0x00005555555551c1	21	    hello(stdout, argv[i]);
(gdb) 
0x00005555555551c3	21	    hello(stdout, argv[i]);
(gdb) 
0x00005555555551cb	21	    hello(stdout, argv[i]);
(gdb) 
0x00005555555551cf	21	    hello(stdout, argv[i]);
(gdb) 
0x00005555555551d2	21	    hello(stdout, argv[i]);
(gdb) 
0x00005555555551d5	21	    hello(stdout, argv[i]);
(gdb) 
0x00005555555551dc	21	    hello(stdout, argv[i]);
(gdb) 
0x00005555555551df	21	    hello(stdout, argv[i]);
(gdb) 
0x00005555555551e2	21	    hello(stdout, argv[i]);
(gdb) 
hello joe
20	  for (int i = 1; i < argc; i++) {
(gdb) 
0x00005555555551eb	20	  for (int i = 1; i < argc; i++) {
(gdb) 
0x00005555555551ee	20	  for (int i = 1; i < argc; i++) {
(gdb) 
0x00005555555551f1	20	  for (int i = 1; i < argc; i++) {
(gdb) 
23	  return 0;
(gdb) 
24	}
(gdb) 
0x00005555555551f9	24	}
(gdb) 
__libc_start_main (main=0x555555555174 <main>, argc=2, argv=0x7fffffffe758, 
    init=<optimized out>, fini=<optimized out>, rtld_fini=<optimized out>, 
    stack_end=0x7fffffffe748) at ../csu/libc-start.c:342
342	../csu/libc-start.c: No such file or directory.
(gdb) nip *(char***)($eax - 0x4)
Cannot access memory at address 0xfffffffffffffffc
(gdb) p *(char***)($eax - 0x4)[C[C[C[C[C[Cni[Kp *(char***)($eax - 0x4)
Cannot access memory at address 0xfffffffffffffffc
(gdb) r
The program being debugged has been started already.
Start it from the beginning? (y or n) y
Starting program: /import/linux/home1/jgordo39/projects/i220a/submit/lab5/exercises/hello joe

Breakpoint 1, main (argc=2, argv=0x7fffffffe758) at hello.c:16
16	  if (argc == 1) {
(gdb) rp *(char***)($eax - 0x4)
Cannot access memory at address 0x55555170
(gdb) ni
0x0000555555555187	16	  if (argc == 1) {
(gdb) 
20	  for (int i = 1; i < argc; i++) {
(gdb) 
20	  for (int i = 1; i < argc; i++) {
(gdb) 
0x00005555555551eb	20	  for (int i = 1; i < argc; i++) {
(gdb) 
0x00005555555551ee	20	  for (int i = 1; i < argc; i++) {
(gdb) 
0x00005555555551f1	20	  for (int i = 1; i < argc; i++) {
(gdb) 
21	    hello(stdout, argv[i]);
(gdb) 
0x00005555555551c1	21	    hello(stdout, argv[i]);
(gdb) nip *(char***)($eax - 0x4)
Cannot access memory at address 0xfffffffffffffffd
(gdb) p *(char***)($eax - 0x4)[1P[1P
Cannot access memory at address 0xfffffffffffffffd
(gdb) q
A debugging session is active.

	Inferior 1 [process 2430457] will be killed.

Quit anyway? (y or n) y
jgordo39@remote07:~/i220a/submit/lab5/exercises$ cdgdb hello[5Pmakegdb hello[5Pmakenaje[2Plscd ..[1P..s ..[1Pd.. ..[3Plsnajemakegdb hello[5Pmakegdb hellocd[K[K[Kexit

Script done on 2021-10-07 11:31:59-04:00 [COMMAND_EXIT_CODE="0"]
Script started on 2021-10-07 14:21:32-04:00 [TERM="xterm-256color" TTY="/dev/pts/11" COLUMNS="83" LINES="39"]
jgordo39@remote07:~/i220a/submit/lab5$ ls
exercises  lab5.LOG
jgordo39@remote07:~/i220a/submit/lab5$ cd lab5[K[K[K[Kexcersis[K[K[K[K[K[K[K[K[K[K[Kgit branch
[?1h=  lab0[m[m
  lab1[m[m
  lab2[m[m
  lab3[m[m
  lab4[m[m
* [32mlab5[m[m
  main[m[m
  prj1[m[m
[K[?1l>jgordo39@remote07:~/i220a/submit/lab5$ cd exercises
jgordo39@remote07:~/i220a/submit/lab5/exercises$ ls
2  hello  hello.c  hello.s  identify  Makefile
jgordo39@remote07:~/i220a/submit/lab5/exercises$ clear
[H[2J[3Jjgordo39@remote07:~/i220a/submit/lab5/exercises$ ls
2  hello  hello.c  hello.s  identify  Makefile
jgordo39@remote07:~/i220a/submit/lab5/exercises$ make
make: Nothing to be done for 'all'.
jgordo39@remote07:~/i220a/submit/lab5/exercises$ disas /m
bash: disas: command not found
jgordo39@remote07:~/i220a/submit/lab5/exercises$ gdb hello
GNU gdb (Debian 8.2.1-2+b3) 8.2.1
Copyright (C) 2018 Free Software Foundation, Inc.
License GPLv3+: GNU GPL version 3 or later <http://gnu.org/licenses/gpl.html>
This is free software: you are free to change and redistribute it.
There is NO WARRANTY, to the extent permitted by law.
Type "show copying" and "show warranty" for details.
This GDB was configured as "x86_64-linux-gnu".
Type "show configuration" for configuration details.
For bug reporting instructions, please see:
<http://www.gnu.org/software/gdb/bugs/>.
Find the GDB manual and other documentation resources online at:
    <http://www.gnu.org/software/gdb/documentation/>.

For help, type "help".
Type "apropos word" to search for commands related to "word"...
Reading symbols from hello...done.
(gdb) disas /m
No frame selected.
(gdb) b main
Breakpoint 1 at 0x1183: file hello.c, line 16.
(gdb) b maindisas /m
No frame selected.
(gdb) r
Starting program: /import/linux/home1/jgordo39/projects/i220a/submit/lab5/exercises/hello 

Breakpoint 1, main (argc=1, argv=0x7fffffffe788) at hello.c:16
16	  if (argc == 1) {
(gdb) disas main[K[K[K[K/m'[K'=[K[K
Dump of assembler code for function main:
15	{
   0x0000555555555174 <+0>:	push   %rbp
   0x0000555555555175 <+1>:	mov    %rsp,%rbp
   0x0000555555555178 <+4>:	sub    $0x20,%rsp
   0x000055555555517c <+8>:	mov    %edi,-0x14(%rbp)
   0x000055555555517f <+11>:	mov    %rsi,-0x20(%rbp)

16	  if (argc == 1) {
=> 0x0000555555555183 <+15>:	cmpl   $0x1,-0x14(%rbp)
   0x0000555555555187 <+19>:	jne    0x5555555551b5 <main+65>

17	    fprintf(stderr, "usage: %s NAME...\n", argv[0]);
   0x0000555555555189 <+21>:	mov    -0x20(%rbp),%rax
   0x000055555555518d <+25>:	mov    (%rax),%rdx
   0x0000555555555190 <+28>:	mov    0x2ec9(%rip),%rax        # 0x555555558060 <stderr@@GLIBC_2.2.5>
   0x0000555555555197 <+35>:	lea    0xe70(%rip),%rsi        # 0x55555555600e
   0x000055555555519e <+42>:	mov    %rax,%rdi
   0x00005555555551a1 <+45>:	mov    $0x0,%eax
   0x00005555555551a6 <+50>:	callq  0x555555555030 <fprintf@plt>

18	    exit(0xdeadbeef);
   0x00005555555551ab <+55>:	mov    $0xdeadbeef,%edi
   0x00005555555551b0 <+60>:	callq  0x555555555040 <exit@plt>

19	  }
20	  for (int i = 1; i < argc; i++) {
   0x00005555555551b5 <+65>:	movl   $0x1,-0x4(%rbp)
   0x00005555555551bc <+72>:	jmp    0x5555555551eb <main+119>
   0x00005555555551e7 <+115>:	addl   $0x1,-0x4(%rbp)
   0x00005555555551eb <+119>:	mov    -0x4(%rbp),%eax
   0x00005555555551ee <+122>:	cmp    -0x14(%rbp),%eax
   0x00005555555551f1 <+125>:	jl     0x5555555551be <main+74>

21	    hello(stdout, argv[i]);
   0x00005555555551be <+74>:	mov    -0x4(%rbp),%eax
   0x00005555555551c1 <+77>:	cltq   
--Type <RET> for more, q to quit, c to continue without paging--ret
   0x00005555555551c3 <+79>:	lea    0x0(,%rax,8),%rdx
   0x00005555555551cb <+87>:	mov    -0x20(%rbp),%rax
   0x00005555555551cf <+91>:	add    %rdx,%rax
   0x00005555555551d2 <+94>:	mov    (%rax),%rdx
   0x00005555555551d5 <+97>:	mov    0x2e64(%rip),%rax        # 0x555555558040 <stdout@@GLIBC_2.2.5>
   0x00005555555551dc <+104>:	mov    %rdx,%rsi
   0x00005555555551df <+107>:	mov    %rax,%rdi
   0x00005555555551e2 <+110>:	callq  0x555555555145 <hello>

22	  }
23	  return 0;
   0x00005555555551f3 <+127>:	mov    $0x0,%eax

24	}
   0x00005555555551f8 <+132>:	leaveq 
   0x00005555555551f9 <+133>:	retq   

End of assembler dump.
(gdb) io [K[K reg
rax            0x555555555174      93824992235892
rbx            0x0                 0
rcx            0x7ffff7f8e718      140737353672472
rdx            0x7fffffffe798      140737488349080
rsi            0x7fffffffe788      140737488349064
rdi            0x1                 1
rbp            0x7fffffffe6a0      0x7fffffffe6a0
rsp            0x7fffffffe680      0x7fffffffe680
r8             0x7ffff7f8fd80      140737353678208
r9             0x7ffff7f8fd80      140737353678208
r10            0x3                 3
r11            0x0                 0
r12            0x555555555060      93824992235616
r13            0x7fffffffe780      140737488349056
r14            0x0                 0
r15            0x0                 0
rip            0x555555555183      0x555555555183 <main+15>
eflags         0x202               [ IF ]
cs             0x33                51
ss             0x2b                43
ds             0x0                 0
es             0x0                 0
fs             0x0                 0
gs             0x0                 0
(gdb) p argc
$1 = 1
(gdb) list
Line number 25 out of range; hello.c has 24 lines.
(gdb) list 
Line number 25 out of range; hello.c has 24 lines.
(gdb) list 1
1	#include <stdio.h>
2	#include <stdlib.h>
3	
4	/** Say hello to who on stream out. */
5	static void
6	hello(FILE *out, const char *who)
7	{
8	  fprintf(out, "hello %s\n", who);
9	}
10	
(gdb) 
11	
12	/** Say hello to 1-or-more command-line arguments. */
13	int
14	main(int argc, const char *argv[])
15	{
16	  if (argc == 1) {
17	    fprintf(stderr, "usage: %s NAME...\n", argv[0]);
18	    exit(0xdeadbeef);
19	  }
20	  for (int i = 1; i < argc; i++) {
(gdb) 
21	    hello(stdout, argv[i]);
22	  }
23	  return 0;
24	}
(gdb) 
Line number 25 out of range; hello.c has 24 lines.
(gdb) 
Line number 25 out of range; hello.c has 24 lines.
(gdb) 
Line number 25 out of range; hello.c has 24 lines.
(gdb) p *($[K[K[K[K[Ki reg
rax            0x555555555174      93824992235892
rbx            0x0                 0
rcx            0x7ffff7f8e718      140737353672472
rdx            0x7fffffffe798      140737488349080
rsi            0x7fffffffe788      140737488349064
rdi            0x1                 1
rbp            0x7fffffffe6a0      0x7fffffffe6a0
rsp            0x7fffffffe680      0x7fffffffe680
r8             0x7ffff7f8fd80      140737353678208
r9             0x7ffff7f8fd80      140737353678208
r10            0x3                 3
r11            0x0                 0
r12            0x555555555060      93824992235616
r13            0x7fffffffe780      140737488349056
r14            0x0                 0
r15            0x0                 0
rip            0x555555555183      0x555555555183 <main+15>
eflags         0x202               [ IF ]
cs             0x33                51
ss             0x2b                43
ds             0x0                 0
es             0x0                 0
fs             0x0                 0
gs             0x0                 0
(gdb) p (*$rbp - 20)
Attempt to dereference a generic pointer.
(gdb) p ([K*(int *)($rbp -20 [K[K[K 20)
$2 = 1
(gdb) p argv
$3 = (const char **) 0x7fffffffe788
(gdb) p *(const char ***)($rbp - 32)
$4 = (const char **) 0x7fffffffe788
(gdb) p (*(const char ****[K)($rbp - 0x20))[-[K0]
$5 = 0x7fffffffe9f3 "/import/linux/home1/jgordo39/projects/i220a/submit/lab5/exercises/hello"
(gdb) displau
Undefined command: "displau".  Try "help".
(gdb) displau[K[Kay
(gdb) display /i *$pc
1: x/i *$pc
=> 0x555555555183 <main+15>:	cmpl   $0x1,-0x14(%rbp)
(gdb) 
(gdb) 
(gdb) p $eflag
$6 = void
(gdb) p $eflags
$7 = [ IF ]
(gdb) p $eflags
$8 = [ IF ]
(gdb) ni
0x0000555555555187	16	  if (argc == 1) {
1: x/i *$pc
=> 0x555555555187 <main+19>:	jne    0x5555555551b5 <main+65>
(gdb) displau
Undefined command: "displau".  Try "help".
(gdb) displau[Ky
1: x/i *$pc
=> 0x555555555187 <main+19>:	jne    0x5555555551b5 <main+65>
(gdb) ni
17	    fprintf(stderr, "usage: %s NAME...\n", argv[0]);
1: x/i *$pc
=> 0x555555555189 <main+21>:	mov    -0x20(%rbp),%rax
(gdb) list
12	/** Say hello to 1-or-more command-line arguments. */
13	int
14	main(int argc, const char *argv[])
15	{
16	  if (argc == 1) {
17	    fprintf(stderr, "usage: %s NAME...\n", argv[0]);
18	    exit(0xdeadbeef);
19	  }
20	  for (int i = 1; i < argc; i++) {
21	    hello(stdout, argv[i]);
(gdb) ni
0x000055555555518d	17	    fprintf(stderr, "usage: %s NAME...\n", argv[0]);
1: x/i *$pc
=> 0x55555555518d <main+25>:	mov    (%rax),%rdx
(gdb) 
0x0000555555555190	17	    fprintf(stderr, "usage: %s NAME...\n", argv[0]);
1: x/i *$pc
=> 0x555555555190 <main+28>:	
    mov    0x2ec9(%rip),%rax        # 0x555555558060 <stderr@@GLIBC_2.2.5>
(gdb) 
0x0000555555555197	17	    fprintf(stderr, "usage: %s NAME...\n", argv[0]);
1: x/i *$pc
=> 0x555555555197 <main+35>:	lea    0xe70(%rip),%rsi        # 0x55555555600e
(gdb) 
0x000055555555519e	17	    fprintf(stderr, "usage: %s NAME...\n", argv[0]);
1: x/i *$pc
=> 0x55555555519e <main+42>:	mov    %rax,%rdi
(gdb) 
0x00005555555551a1	17	    fprintf(stderr, "usage: %s NAME...\n", argv[0]);
1: x/i *$pc
=> 0x5555555551a1 <main+45>:	mov    $0x0,%eax
(gdb) 
0x00005555555551a6	17	    fprintf(stderr, "usage: %s NAME...\n", argv[0]);
1: x/i *$pc
=> 0x5555555551a6 <main+50>:	callq  0x555555555030 <fprintf@plt>
(gdb) p srderr
No symbol "srderr" in current context.
(gdb) p srderr[K[K[K[K[Ktderr
$9 = (FILE *) 0x7ffff7f8f680 <_IO_2_1_stderr_>
(gdb) p rdi$rdi
$10 = 140737353676416
(gdb) p $rdi[Cstderr*stderr(stderr[Cstderr[1Ptderr[1Pstderr[Cstderrtstderrrstderristderrnstderrgstderr stderr*stderr)stderr[1@([C[C[C[C[C[C[C[C[C(stderr[C[C[C[C[C[C)
A syntax error in expression, near `)(stderr)'.
(gdb) p *(string *)(stderr)[K[K[K[K[K[K[K[Kstderr
A syntax error in expression, near `)stderr'.
(gdb) p *(string *)stderr(stderr[C[C[C[C[C[C[C)r[1Pr[C)[1P *)(stderr)[1P *)(stderr)[1P *)(stderr)[1P *)(stderr)[1P *)(stderr)[1P *)(stderr)c *)(stderr)h *)(stderr)a *)(stderr)r *)(stderr)
$11 = -122 '\206'
(gdb) p rdx
No symbol "rdx" in current context.
(gdb) ni
usage: /import/linux/home1/jgordo39/projects/i220a/submit/lab5/exercises/hello NAME...
18	    exit(0xdeadbeef);
1: x/i *$pc
=> 0x5555555551ab <main+55>:	mov    $0xdeadbeef,%edi
(gdb) 
0x00005555555551b0	18	    exit(0xdeadbeef);
1: x/i *$pc
=> 0x5555555551b0 <main+60>:	callq  0x555555555040 <exit@plt>
(gdb) 
[Inferior 1 (process 2486456) exited with code 0357]
(gdb) p rxd[K[K[K[K $rdx
No registers.
(gdb) r
Starting program: /import/linux/home1/jgordo39/projects/i220a/submit/lab5/exercises/hello 

Breakpoint 1, main (argc=1, argv=0x7fffffffe788) at hello.c:16
16	  if (argc == 1) {
1: x/i *$pc
=> 0x555555555183 <main+15>:	cmpl   $0x1,-0x14(%rbp)
(gdb) 
(gdb) ni
0x0000555555555187	16	  if (argc == 1) {
1: x/i *$pc
=> 0x555555555187 <main+19>:	jne    0x5555555551b5 <main+65>
(gdb) 
17	    fprintf(stderr, "usage: %s NAME...\n", argv[0]);
1: x/i *$pc
=> 0x555555555189 <main+21>:	mov    -0x20(%rbp),%rax
(gdb) 
0x000055555555518d	17	    fprintf(stderr, "usage: %s NAME...\n", argv[0]);
1: x/i *$pc
=> 0x55555555518d <main+25>:	mov    (%rax),%rdx
(gdb) 
0x0000555555555190	17	    fprintf(stderr, "usage: %s NAME...\n", argv[0]);
1: x/i *$pc
=> 0x555555555190 <main+28>:	
    mov    0x2ec9(%rip),%rax        # 0x555555558060 <stderr@@GLIBC_2.2.5>
(gdb) 
0x0000555555555197	17	    fprintf(stderr, "usage: %s NAME...\n", argv[0]);
1: x/i *$pc
=> 0x555555555197 <main+35>:	lea    0xe70(%rip),%rsi        # 0x55555555600e
(gdb) 
0x000055555555519e	17	    fprintf(stderr, "usage: %s NAME...\n", argv[0]);
1: x/i *$pc
=> 0x55555555519e <main+42>:	mov    %rax,%rdi
(gdb) 
0x00005555555551a1	17	    fprintf(stderr, "usage: %s NAME...\n", argv[0]);
1: x/i *$pc
=> 0x5555555551a1 <main+45>:	mov    $0x0,%eax
(gdb) 
0x00005555555551a6	17	    fprintf(stderr, "usage: %s NAME...\n", argv[0]);
1: x/i *$pc
=> 0x5555555551a6 <main+50>:	callq  0x555555555030 <fprintf@plt>
(gdb) p char[K[K[K[K(char *)(red[K[Kdx$rdx[C[C[C)
$12 = 0x7fffffffe9f3 "/import/linux/home1/jgordo39/projects/i220a/submit/lab5/exercises/hello"
(gdb) p (char *)($rdx)[C[C[C[C[C[C[Kr[Ki reg
rax            0x0                 0
rbx            0x0                 0
rcx            0x7ffff7f8e718      140737353672472
rdx            0x7fffffffe9f3      140737488349683
rsi            0x55555555600e      93824992239630
rdi            0x7ffff7f8f680      140737353676416
rbp            0x7fffffffe6a0      0x7fffffffe6a0
rsp            0x7fffffffe680      0x7fffffffe680
r8             0x7ffff7f8fd80      140737353678208
r9             0x7ffff7f8fd80      140737353678208
r10            0x3                 3
r11            0x0                 0
r12            0x555555555060      93824992235616
r13            0x7fffffffe780      140737488349056
r14            0x0                 0
r15            0x0                 0
rip            0x5555555551a6      0x5555555551a6 <main+50>
eflags         0x246               [ PF ZF IF ]
cs             0x33                51
ss             0x2b                43
ds             0x0                 0
es             0x0                 0
fs             0x0                 0
gs             0x0                 0
(gdb) i regp (char *)($rdx)[C[C[C[C[C[Cni[Kp (char *)($rdx)
$13 = 0x7fffffffe9f3 "/import/linux/home1/jgordo39/projects/i220a/submit/lab5/exercises/hello"
(gdb) dsiplua[K[Kau
Undefined command: "dsiplau".  Try "help".
(gdb) dsiplau[Ky
Undefined command: "dsiplay".  Try "help".
(gdb) display
1: x/i *$pc
=> 0x5555555551a6 <main+50>:	callq  0x555555555030 <fprintf@plt>
(gdb) 
1: x/i *$pc
=> 0x5555555551a6 <main+50>:	callq  0x555555555030 <fprintf@plt>
(gdb) ni
usage: /import/linux/home1/jgordo39/projects/i220a/submit/lab5/exercises/hello NAME...
18	    exit(0xdeadbeef);
1: x/i *$pc
=> 0x5555555551ab <main+55>:	mov    $0xdeadbeef,%edi
(gdb) 
0x00005555555551b0	18	    exit(0xdeadbeef);
1: x/i *$pc
=> 0x5555555551b0 <main+60>:	callq  0x555555555040 <exit@plt>
(gdb) nidisplaysiplayup (char *)($rdx)[K[K[K[K[K[K$rdx
$14 = 0x7ffff7f908b0 <_IO_stdfile_2_lock> ""
(gdb) p (char *)$rdx[K[Ksi
$15 = 0x7fffffffbfe0 "usage: /import/linux/home1/jgordo39/projects/i220a/submit/lab5/exercises/hello NAME...\n"
(gdb) q
A debugging session is active.

	Inferior 1 [process 2496667] will be killed.

Quit anyway? (y or n) y
jgordo39@remote07:~/i220a/submit/lab5/exercises$ clear
[H[2J[3Jjgordo39@remote07:~/i220a/submit/lab5/exercises$ make clean
rm -f hello hello.s *.objdump *~
jgordo39@remote07:~/i220a/submit/lab5/exercises$ make
cc -g -Wall  -std=c18    hello.c   -o hello
cc -g -Wall  -std=c18 -S hello.c
jgordo39@remote07:~/i220a/submit/lab5/exercises$ clear
[H[2J[3Jjgordo39@remote07:~/i220a/submit/lab5/exercises$ gdb [K[K[K[Kls
2  hello  hello.c  hello.s  identify  Makefile
jgordo39@remote07:~/i220a/submit/lab5/exercises$ gdv [K[Kb hello
GNU gdb (Debian 8.2.1-2+b3) 8.2.1
Copyright (C) 2018 Free Software Foundation, Inc.
License GPLv3+: GNU GPL version 3 or later <http://gnu.org/licenses/gpl.html>
This is free software: you are free to change and redistribute it.
There is NO WARRANTY, to the extent permitted by law.
Type "show copying" and "show warranty" for details.
This GDB was configured as "x86_64-linux-gnu".
Type "show configuration" for configuration details.
For bug reporting instructions, please see:
<http://www.gnu.org/software/gdb/bugs/>.
Find the GDB manual and other documentation resources online at:
    <http://www.gnu.org/software/gdb/documentation/>.

For help, type "help".
Type "apropos word" to search for commands related to "word"...
Reading symbols from hello...done.
(gdb) 
(gdb) s[Ksa[Ktart joe
Temporary breakpoint 1 at 0x1183: file hello.c, line 16.
Starting program: /import/linux/home1/jgordo39/projects/i220a/submit/lab5/exercises/hello joe

Temporary breakpoint 1, main (argc=2, argv=0x7fffffffe768) at hello.c:16
16	  if (argc == 1) {
(gdb) disas /,[Km
Dump of assembler code for function main:
15	{
   0x0000555555555174 <+0>:	push   %rbp
   0x0000555555555175 <+1>:	mov    %rsp,%rbp
   0x0000555555555178 <+4>:	sub    $0x20,%rsp
   0x000055555555517c <+8>:	mov    %edi,-0x14(%rbp)
   0x000055555555517f <+11>:	mov    %rsi,-0x20(%rbp)

16	  if (argc == 1) {
=> 0x0000555555555183 <+15>:	cmpl   $0x1,-0x14(%rbp)
   0x0000555555555187 <+19>:	jne    0x5555555551b5 <main+65>

17	    fprintf(stderr, "usage: %s NAME...\n", argv[0]);
   0x0000555555555189 <+21>:	mov    -0x20(%rbp),%rax
   0x000055555555518d <+25>:	mov    (%rax),%rdx
   0x0000555555555190 <+28>:	mov    0x2ec9(%rip),%rax        # 0x555555558060 <stderr@@GLIBC_2.2.5>
   0x0000555555555197 <+35>:	lea    0xe70(%rip),%rsi        # 0x55555555600e
   0x000055555555519e <+42>:	mov    %rax,%rdi
   0x00005555555551a1 <+45>:	mov    $0x0,%eax
   0x00005555555551a6 <+50>:	callq  0x555555555030 <fprintf@plt>

18	    exit(0xdeadbeef);
   0x00005555555551ab <+55>:	mov    $0xdeadbeef,%edi
   0x00005555555551b0 <+60>:	callq  0x555555555040 <exit@plt>

19	  }
20	  for (int i = 1; i < argc; i++) {
   0x00005555555551b5 <+65>:	movl   $0x1,-0x4(%rbp)
   0x00005555555551bc <+72>:	jmp    0x5555555551eb <main+119>
   0x00005555555551e7 <+115>:	addl   $0x1,-0x4(%rbp)
   0x00005555555551eb <+119>:	mov    -0x4(%rbp),%eax
   0x00005555555551ee <+122>:	cmp    -0x14(%rbp),%eax
   0x00005555555551f1 <+125>:	jl     0x5555555551be <main+74>

21	    hello(stdout, argv[i]);
   0x00005555555551be <+74>:	mov    -0x4(%rbp),%eax
   0x00005555555551c1 <+77>:	cltq   
--Type <RET> for more, q to quit, c to continue without paging--
   0x00005555555551c3 <+79>:	lea    0x0(,%rax,8),%rdx
   0x00005555555551cb <+87>:	mov    -0x20(%rbp),%rax
   0x00005555555551cf <+91>:	add    %rdx,%rax
   0x00005555555551d2 <+94>:	mov    (%rax),%rdx
   0x00005555555551d5 <+97>:	mov    0x2e64(%rip),%rax        # 0x555555558040 <stdout@@GLIBC_2.2.5>
   0x00005555555551dc <+104>:	mov    %rdx,%rsi
   0x00005555555551df <+107>:	mov    %rax,%rdi
   0x00005555555551e2 <+110>:	callq  0x555555555145 <hello>

22	  }
23	  return 0;
   0x00005555555551f3 <+127>:	mov    $0x0,%eax

24	}
   0x00005555555551f8 <+132>:	leaveq 
   0x00005555555551f9 <+133>:	retq   

End of assembler dump.
(gdb) p i
No symbol "i" in current context.
(gdb) ni
0x0000555555555187	16	  if (argc == 1) {
(gdb) 
20	  for (int i = 1; i < argc; i++) {
(gdb) p i
$1 = 0
(gdb) 
$2 = 0
(gdb) in
Ambiguous command "in": inf, inferior, info, init-if-undefined, inspect, internals, interpreter-exec, interrupt.
(gdb) ni
20	  for (int i = 1; i < argc; i++) {
(gdb) n[K
0x00005555555551eb	20	  for (int i = 1; i < argc; i++) {
(gdb) 
0x00005555555551ee	20	  for (int i = 1; i < argc; i++) {
(gdb) 
0x00005555555551f1	20	  for (int i = 1; i < argc; i++) {
(gdb) p i
$3 = 1
(gdb) 
$4 = 1
(gdb) 
$5 = 1
(gdb) 
$6 = 1
(gdb) 
$7 = 1
(gdb) 
$8 = 1
(gdb) 
$9 = 1
(gdb) pi
>>> 
>>> 
[1]+  Stopped                 gdb hello
jgordo39@remote07:~/i220a/submit/lab5/exercises$ gdb hellols[Kgdb hello[K[K[K[K[K[K[K[K[Kfg
gdb hello
(gdb) d
d
Traceback (most recent call last):
  File "<stdin>", line 1, in <module>
NameError: name 'd' is not defined
>>> re[Kun
Traceback (most recent call last):
  File "<stdin>", line 1, in <module>
NameError: name 'run' is not defined
>>> r
Traceback (most recent call last):
  File "<stdin>", line 1, in <module>
NameError: name 'r' is not defined
>>> 
(gdb) quit
A debugging session is active.

	Inferior 1 [process 2497724] will be killed.

Quit anyway? (y or n) y
jgordo39@remote07:~/i220a/submit/lab5/exercises$ gb [K[Kdb hello
GNU gdb (Debian 8.2.1-2+b3) 8.2.1
Copyright (C) 2018 Free Software Foundation, Inc.
License GPLv3+: GNU GPL version 3 or later <http://gnu.org/licenses/gpl.html>
This is free software: you are free to change and redistribute it.
There is NO WARRANTY, to the extent permitted by law.
Type "show copying" and "show warranty" for details.
This GDB was configured as "x86_64-linux-gnu".
Type "show configuration" for configuration details.
For bug reporting instructions, please see:
<http://www.gnu.org/software/gdb/bugs/>.
Find the GDB manual and other documentation resources online at:
    <http://www.gnu.org/software/gdb/documentation/>.

For help, type "help".
Type "apropos word" to search for commands related to "word"...
Reading symbols from hello...done.
(gdb) pi
>>> 
[1]+  Stopped                 gdb hello
jgordo39@remote07:~/i220a/submit/lab5/exercises$ gdb hellofg[Kgdb hello
GNU gdb (Debian 8.2.1-2+b3) 8.2.1
Copyright (C) 2018 Free Software Foundation, Inc.
License GPLv3+: GNU GPL version 3 or later <http://gnu.org/licenses/gpl.html>
This is free software: you are free to change and redistribute it.
There is NO WARRANTY, to the extent permitted by law.
Type "show copying" and "show warranty" for details.
This GDB was configured as "x86_64-linux-gnu".
Type "show configuration" for configuration details.
For bug reporting instructions, please see:
<http://www.gnu.org/software/gdb/bugs/>.
Find the GDB manual and other documentation resources online at:
    <http://www.gnu.org/software/gdb/documentation/>.

For help, type "help".
Type "apropos word" to search for commands related to "word"...
Reading symbols from hello...done.
(gdb) p i
No symbol "i" in current context.
(gdb) i p
Ambiguous info command "p": pretty-printer, probes, proc, program.
(gdb) clear
No source file specified.
(gdb) empty
Undefined command: "empty".  Try "help".
(gdb) p i
No symbol "i" in current context.
(gdb) r
Starting program: /import/linux/home1/jgordo39/projects/i220a/submit/lab5/exercises/hello 
usage: /import/linux/home1/jgordo39/projects/i220a/submit/lab5/exercises/hello NAME...
[Inferior 1 (process 2499228) exited with code 0357]
(gdb) pi
>>> 
>>> 
>>> 
>>> s
Traceback (most recent call last):
  File "<stdin>", line 1, in <module>
NameError: name 's' is not defined
>>> 
KeyboardInterrupt
>>> 
[2]+  Stopped                 gdb hello
jgordo39@remote07:~/i220a/submit/lab5/exercises$ clrae[K[K[Kear
[H[2J[3Jjgordo39@remote07:~/i220a/submit/lab5/exercises$ exit
There are stopped jobs.
jgordo39@remote07:~/i220a/submit/lab5/exercises$ clear
[H[2J[3Jjgordo39@remote07:~/i220a/submit/lab5/exercises$ disass[Ks .[K/m
bash: disass: command not found
jgordo39@remote07:~/i220a/submit/lab5/exercises$ disass /m[C[C[1P /m
bash: disas: command not found
jgordo39@remote07:~/i220a/submit/lab5/exercises$ disas /m[Cs /m[1@\[1P
bash: disass: command not found
jgordo39@remote07:~/i220a/submit/lab5/exercises$ b main
bash: b: command not found
jgordo39@remote07:~/i220a/submit/lab5/exercises$ b maindisass /m[3Pb maindisass /m[1P /ms /m[4Pcleargdb hello
GNU gdb (Debian 8.2.1-2+b3) 8.2.1
Copyright (C) 2018 Free Software Foundation, Inc.
License GPLv3+: GNU GPL version 3 or later <http://gnu.org/licenses/gpl.html>
This is free software: you are free to change and redistribute it.
There is NO WARRANTY, to the extent permitted by law.
Type "show copying" and "show warranty" for details.
This GDB was configured as "x86_64-linux-gnu".
Type "show configuration" for configuration details.
For bug reporting instructions, please see:
<http://www.gnu.org/software/gdb/bugs/>.
Find the GDB manual and other documentation resources online at:
    <http://www.gnu.org/software/gdb/documentation/>.

For help, type "help".
Type "apropos word" to search for commands related to "word"...
Reading symbols from hello...done.
(gdb) disass /m
No frame selected.
(gdb) b main
Breakpoint 1 at 0x1183: file hello.c, line 16.
(gdb) r
Starting program: /import/linux/home1/jgordo39/projects/i220a/submit/lab5/exercises/hello 

Breakpoint 1, main (argc=1, argv=0x7fffffffe788) at hello.c:16
16	  if (argc == 1) {
(gdb) quit
A debugging session is active.

	Inferior 1 [process 2499488] will be killed.

Quit anyway? (y or n) y
jgordo39@remote07:~/i220a/submit/lab5/exercises$ gdb hello
GNU gdb (Debian 8.2.1-2+b3) 8.2.1
Copyright (C) 2018 Free Software Foundation, Inc.
License GPLv3+: GNU GPL version 3 or later <http://gnu.org/licenses/gpl.html>
This is free software: you are free to change and redistribute it.
There is NO WARRANTY, to the extent permitted by law.
Type "show copying" and "show warranty" for details.
This GDB was configured as "x86_64-linux-gnu".
Type "show configuration" for configuration details.
For bug reporting instructions, please see:
<http://www.gnu.org/software/gdb/bugs/>.
Find the GDB manual and other documentation resources online at:
    <http://www.gnu.org/software/gdb/documentation/>.

For help, type "help".
Type "apropos word" to search for commands related to "word"...
Reading symbols from hello...done.
(gdb) h[Kb main
Breakpoint 1 at 0x1183: file hello.c, line 16.
(gdb) r Josh[K[Ke
Starting program: /import/linux/home1/jgordo39/projects/i220a/submit/lab5/exercises/hello Joe

Breakpoint 1, main (argc=2, argv=0x7fffffffe768) at hello.c:16
16	  if (argc == 1) {
(gdb) wwwwwwwwwwwwwwwwww[K[K[K[K[K[K[K[K[K[K[K[K[K[K[K[K[K[Kwa[K[K [Kp i
No symbol "i" in current context.
(gdb) ni
0x0000555555555187	16	  if (argc == 1) {
(gdb) 
20	  for (int i = 1; i < argc; i++) {
(gdb) 
20	  for (int i = 1; i < argc; i++) {
(gdb) 
0x00005555555551eb	20	  for (int i = 1; i < argc; i++) {
(gdb) 
0x00005555555551ee	20	  for (int i = 1; i < argc; i++) {
(gdb) 
0x00005555555551f1	20	  for (int i = 1; i < argc; i++) {
(gdb) 
21	    hello(stdout, argv[i]);
(gdb) p i
$1 = 1
(gdb) 4ea[K[K[K4eax[C[1Peax$eax[C[C[C = $eax-1
Undefined command: "$eax".  Try "help".
(gdb) $eax = $eax-1[1@s[1@e[1@t[1@ 
(gdb) ni
0x00005555555551c1	21	    hello(stdout, argv[i]);
(gdb) 
0x00005555555551c3	21	    hello(stdout, argv[i]);
(gdb) 
0x00005555555551cb	21	    hello(stdout, argv[i]);
(gdb) 
0x00005555555551cf	21	    hello(stdout, argv[i]);
(gdb) 
0x00005555555551d2	21	    hello(stdout, argv[i]);
(gdb) 
0x00005555555551d5	21	    hello(stdout, argv[i]);
(gdb) 
0x00005555555551dc	21	    hello(stdout, argv[i]);
(gdb) 
0x00005555555551df	21	    hello(stdout, argv[i]);
(gdb) 
0x00005555555551e2	21	    hello(stdout, argv[i]);
(gdb) ni
hello Joe
20	  for (int i = 1; i < argc; i++) {
(gdb) n
23	  return 0;
(gdb) 
24	}
(gdb) 
__libc_start_main (main=0x555555555174 <main>, argc=2, argv=0x7fffffffe768, 
    init=<optimized out>, fini=<optimized out>, rtld_fini=<optimized out>, 
    stack_end=0x7fffffffe758) at ../csu/libc-start.c:342
342	../csu/libc-start.c: No such file or directory.
(gdb) 
[Inferior 1 (process 2499563) exited normally]
(gdb) 
The program is not being run.
(gdb) 
The program is not being run.
(gdb) quit
jgordo39@remote07:~/i220a/submit/lab5/exercises$ git add .
jgordo39@remote07:~/i220a/submit/lab5/exercises$ cit commit 'finished lab5'
bash: cit: command not found
jgordo39@remote07:~/i220a/submit/lab5/exercises$ cit commit 'finished lab5'[C[1@ [1@-[1@a[C[1@ [1@-[1P[1P[1P[1P[1P[1P[1P[1P[1P[1P[1P[1P[1P[1P[1P[C[C[C[C[C[C[C[C[C[C[C[C[C[C[C[C[K[K[K[K[K[K[K[K[K[K[K[K[K[K[K[Kexit
There are stopped jobs.
jgordo39@remote07:~/i220a/submit/lab5/exercises$ exit
(gdb) (gdb) Exception ignored in: Exception ignored in: <gdb.GdbOutputFile object at 0x7ff48d6135f8><gdb.GdbOutputFile object at 0x7f13fa2c25f8>

Traceback (most recent call last):
Traceback (most recent call last):
  File "/usr/share/gdb/python/gdb/__init__.py", line 43, in flush
  File "/usr/share/gdb/python/gdb/__init__.py", line 43, in flush
        def flush(self):def flush(self):

KeyboardInterruptKeyboardInterrupt


Script done on 2021-10-07 15:07:09-04:00 [COMMAND_EXIT_CODE="127"]
